
C:/Users/User/Desktop/CPEN 391/Project_1/cpen-391-module-1/monitor_program/main.axf:     file format elf32-littlearm


Disassembly of section .text:

00000000 <__cs3_interrupt_vector>:
       0:	18 f0 9f e5 18 f0 9f e5 18 f0 9f e5 18 f0 9f e5     ................
      10:	18 f0 9f e5 18 f0 9f e5 18 f0 9f e5 18 f0 9f e5     ................
      20:	40 00 00 00 ec c2 00 00 f0 c2 00 00 f4 c2 00 00     @...............
      30:	f8 c2 00 00 e8 c2 00 00 fc c2 00 00 00 c3 00 00     ................

00000040 <__cs3_reset>:
      40:	ea000026 	b	e0 <__cs3_start_asm_sim>

00000044 <__cs3_start_c>:
      44:	e59f608c 	ldr	r6, [pc, #140]	; d8 <__cs3_start_c+0x94>
      48:	e3560000 	cmp	r6, #0
      4c:	e92d4080 	push	{r7, lr}
      50:	e2466001 	sub	r6, r6, #1
      54:	0a00001e 	beq	d4 <__cs3_start_c+0x90>
      58:	e59f507c 	ldr	r5, [pc, #124]	; dc <__cs3_start_c+0x98>
      5c:	e3a00000 	mov	r0, #0
      60:	e3a01000 	mov	r1, #0
      64:	e515200c 	ldr	r2, [r5, #-12]
      68:	e515e010 	ldr	lr, [r5, #-16]
      6c:	e5154008 	ldr	r4, [r5, #-8]
      70:	e15e0002 	cmp	lr, r2
      74:	00822004 	addeq	r2, r2, r4
      78:	0a000009 	beq	a4 <__cs3_start_c+0x60>
      7c:	e3540000 	cmp	r4, #0
      80:	0a000007 	beq	a4 <__cs3_start_c+0x60>
      84:	e1a07002 	mov	r7, r2
      88:	e1a0c002 	mov	r12, r2
      8c:	e8be000c 	ldm	lr!, {r2, r3}
      90:	e8ac000c 	stmia	r12!, {r2, r3}
      94:	e067300c 	rsb	r3, r7, r12
      98:	e1540003 	cmp	r4, r3
      9c:	e1a0200c 	mov	r2, r12
      a0:	1afffff9 	bne	8c <__cs3_start_c+0x48>
      a4:	e515e004 	ldr	lr, [r5, #-4]
      a8:	e35e0000 	cmp	lr, #0
      ac:	11a03002 	movne	r3, r2
      b0:	0a000003 	beq	c4 <__cs3_start_c+0x80>
      b4:	e8a30003 	stmia	r3!, {r0, r1}
      b8:	e062c003 	rsb	r12, r2, r3
      bc:	e15e000c 	cmp	lr, r12
      c0:	1afffffb 	bne	b4 <__cs3_start_c+0x70>
      c4:	e2466001 	sub	r6, r6, #1
      c8:	e3760001 	cmn	r6, #1
      cc:	e2855014 	add	r5, r5, #20
      d0:	1affffe3 	bne	64 <__cs3_start_c+0x20>
      d4:	eb002ee6 	bl	bc74 <__cs3_premain>
      d8:	00000001 	.word	0x00000001
      dc:	000170c0 	.word	0x000170c0

000000e0 <__cs3_start_asm_sim>:
      e0:	e28f103c 	add	r1, pc, #60	; 0x3c
      e4:	e3a00016 	mov	r0, #22
      e8:	ef123456 	svc	0x00123456
      ec:	e3500000 	cmp	r0, #0
      f0:	ba000008 	blt	118 <__cs3_start_asm_sim+0x38>
      f4:	e59f2028 	ldr	r2, [pc, #40]	; 124 <__cs3_heap_start_ptr>
      f8:	e59fd01c 	ldr	sp, [pc, #28]	; 11c <__cs3_start_asm_sim+0x3c>
      fc:	e5920008 	ldr	r0, [r2, #8]
     100:	e3500000 	cmp	r0, #0
     104:	11a0d000 	movne	sp, r0
     108:	e59f1010 	ldr	r1, [pc, #16]	; 120 <__cs3_start_asm_sim+0x40>
     10c:	e5920004 	ldr	r0, [r2, #4]
     110:	e3500000 	cmp	r0, #0
     114:	15810000 	strne	r0, [r1]
     118:	eaffffc9 	b	44 <__cs3_start_c>
     11c:	3ffffffc 	.word	0x3ffffffc
     120:	00017990 	.word	0x00017990

00000124 <__cs3_heap_start_ptr>:
     124:	000199e8 	.word	0x000199e8

00000128 <_start>:
     128:	e51fd000 	ldr	sp, [pc, #-0]	; 130 <_start+0x8>
     12c:	eaffffc4 	b	44 <__cs3_start_c>
     130:	3ffffffc 	.word	0x3ffffffc

00000134 <deregister_tm_clones>:
     134:	e92d4008 	push	{r3, lr}
     138:	e59f002c 	ldr	r0, [pc, #44]	; 16c <deregister_tm_clones+0x38>
     13c:	e59f302c 	ldr	r3, [pc, #44]	; 170 <deregister_tm_clones+0x3c>
     140:	e0603003 	rsb	r3, r0, r3
     144:	e3530006 	cmp	r3, #6
     148:	8a000001 	bhi	154 <deregister_tm_clones+0x20>
     14c:	e8bd4008 	pop	{r3, lr}
     150:	e12fff1e 	bx	lr
     154:	e59f3018 	ldr	r3, [pc, #24]	; 174 <deregister_tm_clones+0x40>
     158:	e3530000 	cmp	r3, #0
     15c:	0afffffa 	beq	14c <deregister_tm_clones+0x18>
     160:	e1a0e00f 	mov	lr, pc
     164:	e12fff13 	bx	r3
     168:	eafffff7 	b	14c <deregister_tm_clones+0x18>
     16c:	00017998 	.word	0x00017998
     170:	0001799b 	.word	0x0001799b
     174:	00000000 	.word	0x00000000

00000178 <register_tm_clones>:
     178:	e92d4008 	push	{r3, lr}
     17c:	e59f0034 	ldr	r0, [pc, #52]	; 1b8 <register_tm_clones+0x40>
     180:	e59f3034 	ldr	r3, [pc, #52]	; 1bc <register_tm_clones+0x44>
     184:	e0603003 	rsb	r3, r0, r3
     188:	e1a03143 	asr	r3, r3, #2
     18c:	e0833fa3 	add	r3, r3, r3, lsr #31
     190:	e1b010c3 	asrs	r1, r3, #1
     194:	1a000001 	bne	1a0 <register_tm_clones+0x28>
     198:	e8bd4008 	pop	{r3, lr}
     19c:	e12fff1e 	bx	lr
     1a0:	e59f2018 	ldr	r2, [pc, #24]	; 1c0 <register_tm_clones+0x48>
     1a4:	e3520000 	cmp	r2, #0
     1a8:	0afffffa 	beq	198 <register_tm_clones+0x20>
     1ac:	e1a0e00f 	mov	lr, pc
     1b0:	e12fff12 	bx	r2
     1b4:	eafffff7 	b	198 <register_tm_clones+0x20>
     1b8:	00017998 	.word	0x00017998
     1bc:	00017998 	.word	0x00017998
     1c0:	00000000 	.word	0x00000000

000001c4 <__do_global_dtors_aux>:
     1c4:	e92d4010 	push	{r4, lr}
     1c8:	e59f402c 	ldr	r4, [pc, #44]	; 1fc <__do_global_dtors_aux+0x38>
     1cc:	e5d43000 	ldrb	r3, [r4]
     1d0:	e3530000 	cmp	r3, #0
     1d4:	1a000006 	bne	1f4 <__do_global_dtors_aux+0x30>
     1d8:	ebffffd5 	bl	134 <deregister_tm_clones>
     1dc:	e59f301c 	ldr	r3, [pc, #28]	; 200 <__do_global_dtors_aux+0x3c>
     1e0:	e3530000 	cmp	r3, #0
     1e4:	159f0018 	ldrne	r0, [pc, #24]	; 204 <__do_global_dtors_aux+0x40>
     1e8:	1320f000 	nopne	{0}
     1ec:	e3a03001 	mov	r3, #1
     1f0:	e5c43000 	strb	r3, [r4]
     1f4:	e8bd4010 	pop	{r4, lr}
     1f8:	e12fff1e 	bx	lr
     1fc:	00017998 	.word	0x00017998
     200:	00000000 	.word	0x00000000
     204:	0000c39c 	.word	0x0000c39c

00000208 <frame_dummy>:
     208:	e92d4008 	push	{r3, lr}
     20c:	e59f3034 	ldr	r3, [pc, #52]	; 248 <frame_dummy+0x40>
     210:	e3530000 	cmp	r3, #0
     214:	159f0030 	ldrne	r0, [pc, #48]	; 24c <frame_dummy+0x44>
     218:	159f1030 	ldrne	r1, [pc, #48]	; 250 <frame_dummy+0x48>
     21c:	1320f000 	nopne	{0}
     220:	e59f002c 	ldr	r0, [pc, #44]	; 254 <frame_dummy+0x4c>
     224:	e5903000 	ldr	r3, [r0]
     228:	e3530000 	cmp	r3, #0
     22c:	0a000003 	beq	240 <frame_dummy+0x38>
     230:	e59f3020 	ldr	r3, [pc, #32]	; 258 <frame_dummy+0x50>
     234:	e3530000 	cmp	r3, #0
     238:	11a0e00f 	movne	lr, pc
     23c:	112fff13 	bxne	r3
     240:	e8bd4008 	pop	{r3, lr}
     244:	eaffffcb 	b	178 <register_tm_clones>
     248:	00000000 	.word	0x00000000
     24c:	0000c39c 	.word	0x0000c39c
     250:	0001799c 	.word	0x0001799c
     254:	000170c0 	.word	0x000170c0
     258:	00000000 	.word	0x00000000

0000025c <main>:
#include "Graphics/Touchscreen.h"

#include "Graphics/Text.h"

int main(void)
{
     25c:	e92d4008 	push	{r3, lr}
    printf("Starting...\n");
     260:	e30c03a8 	movw	r0, #50088	; 0xc3a8
     264:	e3400000 	movt	r0, #0
     268:	eb00056c 	bl	1820 <puts>
	Init_Touch();
     26c:	eb000481 	bl	1478 <Init_Touch>
	
	//FillBox(30, 789, 360, 469, WHITE);
	HomeMenu();
     270:	eb00024b 	bl	ba4 <HomeMenu>
	//Font3(20, 0, RED, (int)'A');
	
    printf("Done...\n");
     274:	e30c03b4 	movw	r0, #50100	; 0xc3b4
     278:	e3400000 	movt	r0, #0
     27c:	eb000567 	bl	1820 <puts>
    return 0 ;
}
     280:	e3a00000 	mov	r0, #0
     284:	e8bd8008 	pop	{r3, pc}

00000288 <WriteAPixel>:
* This function writes a single pixel to the x,y coords specified using the specified colour
* Note colour is a byte and represents a palette number (0-255) not a 24 bit RGB value
********************************************************************************************/
void WriteAPixel(int x, int y, int Colour)
{
	WAIT_FOR_GRAPHICS;				// is graphics ready for new command
     288:	e3a0c000 	mov	r12, #0
     28c:	e34fcf21 	movt	r12, #65313	; 0xff21
     290:	e1dc30b0 	ldrh	r3, [r12]
     294:	e3130001 	tst	r3, #1
     298:	0afffffc 	beq	290 <WriteAPixel+0x8>

	GraphicsX1Reg = x;				// write coords to x1, y1
     29c:	e6ff0070 	uxth	r0, r0
     2a0:	e3a03000 	mov	r3, #0
     2a4:	e34f3f21 	movt	r3, #65313	; 0xff21
     2a8:	e1c300b2 	strh	r0, [r3, #2]
	GraphicsY1Reg = y;
     2ac:	e6ff1071 	uxth	r1, r1
     2b0:	e1c310b4 	strh	r1, [r3, #4]
	GraphicsColourReg = Colour;			// set pixel colour
     2b4:	e6ff2072 	uxth	r2, r2
     2b8:	e1c320be 	strh	r2, [r3, #14]
	GraphicsCommandReg = PutAPixel;			// give graphics "write pixel" command
     2bc:	e3a0200a 	mov	r2, #10
     2c0:	e1c320b0 	strh	r2, [r3]
     2c4:	e12fff1e 	bx	lr

000002c8 <ReadAPixel>:
* Note returned colour is a byte and represents a palette number (0-255) not a 24 bit RGB value
*********************************************************************************************/

int ReadAPixel(int x, int y)
{
	WAIT_FOR_GRAPHICS;			// is graphics ready for new command
     2c8:	e3a02000 	mov	r2, #0
     2cc:	e34f2f21 	movt	r2, #65313	; 0xff21
     2d0:	e1d230b0 	ldrh	r3, [r2]
     2d4:	e3130001 	tst	r3, #1
     2d8:	0afffffc 	beq	2d0 <ReadAPixel+0x8>

	GraphicsX1Reg = x;			// write coords to x1, y1
     2dc:	e6ff0070 	uxth	r0, r0
     2e0:	e3a03000 	mov	r3, #0
     2e4:	e34f3f21 	movt	r3, #65313	; 0xff21
     2e8:	e1c300b2 	strh	r0, [r3, #2]
	GraphicsY1Reg = y;
     2ec:	e6ff1071 	uxth	r1, r1
     2f0:	e1c310b4 	strh	r1, [r3, #4]
	GraphicsCommandReg = GetAPixel;		// give graphics a "get pixel" command
     2f4:	e3a0200b 	mov	r2, #11
     2f8:	e1c320b0 	strh	r2, [r3]

	WAIT_FOR_GRAPHICS;			// is graphics done reading pixel
     2fc:	e3a02000 	mov	r2, #0
     300:	e34f2f21 	movt	r2, #65313	; 0xff21
     304:	e1d230b0 	ldrh	r3, [r2]
     308:	e3130001 	tst	r3, #1
     30c:	0afffffc 	beq	304 <ReadAPixel+0x3c>
	return (int)(GraphicsColourReg) ;	// return the palette number (colour)
     310:	e3a03000 	mov	r3, #0
     314:	e34f3f21 	movt	r3, #65313	; 0xff21
     318:	e1d300be 	ldrh	r0, [r3, #14]
}
     31c:	e12fff1e 	bx	lr

00000320 <ProgramPalette>:
**
************************************************************************************/

void ProgramPalette(int PaletteNumber, int RGB)
{
    WAIT_FOR_GRAPHICS;
     320:	e3a02000 	mov	r2, #0
     324:	e34f2f21 	movt	r2, #65313	; 0xff21
     328:	e1d230b0 	ldrh	r3, [r2]
     32c:	e3130001 	tst	r3, #1
     330:	0afffffc 	beq	328 <ProgramPalette+0x8>
    GraphicsColourReg = PaletteNumber;
     334:	e6ff0070 	uxth	r0, r0
     338:	e3a03000 	mov	r3, #0
     33c:	e34f3f21 	movt	r3, #65313	; 0xff21
     340:	e1c300be 	strh	r0, [r3, #14]
    GraphicsX1Reg = RGB >> 16   ;        // program red value in ls.8 bit of X1 reg
     344:	e1a02821 	lsr	r2, r1, #16
     348:	e1c320b2 	strh	r2, [r3, #2]
    GraphicsY1Reg = RGB ;                // program green and blue into ls 16 bit of Y1 reg
     34c:	e6ff1071 	uxth	r1, r1
     350:	e1c310b4 	strh	r1, [r3, #4]
    GraphicsCommandReg = ProgramPaletteColour; // issue command
     354:	e3a02010 	mov	r2, #16
     358:	e1c320b0 	strh	r2, [r3]
     35c:	e12fff1e 	bx	lr

00000360 <HLine>:

/********************************************************************************************* This function draw a horizontal line, 1 pixel at a time starting at the x,y coords specified
*********************************************************************************************/

void HLine(int x1, int y1, int x2, int Colour)
{
     360:	e52d4004 	push	{r4}		; (str r4, [sp, #-4]!)
	WAIT_FOR_GRAPHICS;
     364:	e3a04000 	mov	r4, #0
     368:	e34f4f21 	movt	r4, #65313	; 0xff21
     36c:	e1d4c0b0 	ldrh	r12, [r4]
     370:	e31c0001 	tst	r12, #1
     374:	0afffffc 	beq	36c <HLine+0xc>

	GraphicsX1Reg = x1;
     378:	e6ff0070 	uxth	r0, r0
     37c:	e3a0c000 	mov	r12, #0
     380:	e34fcf21 	movt	r12, #65313	; 0xff21
     384:	e1cc00b2 	strh	r0, [r12, #2]
	GraphicsY1Reg = y1;
     388:	e6ff1071 	uxth	r1, r1
     38c:	e1cc10b4 	strh	r1, [r12, #4]
	GraphicsX2Reg = x2;			
     390:	e6ff2072 	uxth	r2, r2
     394:	e1cc20b6 	strh	r2, [r12, #6]
	GraphicsColourReg = Colour;
     398:	e6ff3073 	uxth	r3, r3
     39c:	e1cc30be 	strh	r3, [r12, #14]
	GraphicsCommandReg = DrawHLine;
     3a0:	e3a03001 	mov	r3, #1
     3a4:	e1cc30b0 	strh	r3, [r12]
}
     3a8:	e8bd0010 	ldmfd	sp!, {r4}
     3ac:	e12fff1e 	bx	lr

000003b0 <VLine>:

/********************************************************************************************* This function draw a vertical line, 1 pixel at a time starting at the x,y coords specified
*********************************************************************************************/

void VLine(int x1, int y1, int y2, int Colour)
{
     3b0:	e52d4004 	push	{r4}		; (str r4, [sp, #-4]!)
	WAIT_FOR_GRAPHICS;
     3b4:	e3a04000 	mov	r4, #0
     3b8:	e34f4f21 	movt	r4, #65313	; 0xff21
     3bc:	e1d4c0b0 	ldrh	r12, [r4]
     3c0:	e31c0001 	tst	r12, #1
     3c4:	0afffffc 	beq	3bc <VLine+0xc>

	GraphicsX1Reg = x1;
     3c8:	e6ff0070 	uxth	r0, r0
     3cc:	e3a0c000 	mov	r12, #0
     3d0:	e34fcf21 	movt	r12, #65313	; 0xff21
     3d4:	e1cc00b2 	strh	r0, [r12, #2]
	GraphicsY1Reg = y1;
     3d8:	e6ff1071 	uxth	r1, r1
     3dc:	e1cc10b4 	strh	r1, [r12, #4]
	GraphicsY2Reg = y2;
     3e0:	e6ff2072 	uxth	r2, r2
     3e4:	e1cc20b8 	strh	r2, [r12, #8]
	GraphicsColourReg = Colour;
     3e8:	e6ff3073 	uxth	r3, r3
     3ec:	e1cc30be 	strh	r3, [r12, #14]
	GraphicsCommandReg = DrawVLine;
     3f0:	e3a03002 	mov	r3, #2
     3f4:	e1cc30b0 	strh	r3, [r12]
}
     3f8:	e8bd0010 	ldmfd	sp!, {r4}
     3fc:	e12fff1e 	bx	lr

00000400 <Line>:

/*******************************************************************************
*******************************************************************************/

void Line(int x1, int y1, int x2, int y2, int Colour)
{
     400:	e52d4004 	push	{r4}		; (str r4, [sp, #-4]!)
	WAIT_FOR_GRAPHICS;
     404:	e3a04000 	mov	r4, #0
     408:	e34f4f21 	movt	r4, #65313	; 0xff21
     40c:	e1d4c0b0 	ldrh	r12, [r4]
     410:	e31c0001 	tst	r12, #1
     414:	0afffffc 	beq	40c <Line+0xc>

	GraphicsX1Reg = x1;
     418:	e6ff0070 	uxth	r0, r0
     41c:	e3a0c000 	mov	r12, #0
     420:	e34fcf21 	movt	r12, #65313	; 0xff21
     424:	e1cc00b2 	strh	r0, [r12, #2]
	GraphicsX2Reg = x2;
     428:	e6ff2072 	uxth	r2, r2
     42c:	e1cc20b6 	strh	r2, [r12, #6]
	GraphicsY1Reg = y1;
     430:	e6ff1071 	uxth	r1, r1
     434:	e1cc10b4 	strh	r1, [r12, #4]
	GraphicsY2Reg = y2;
     438:	e6ff3073 	uxth	r3, r3
     43c:	e1cc30b8 	strh	r3, [r12, #8]
	GraphicsColourReg = Colour;
     440:	e1dd30b4 	ldrh	r3, [sp, #4]
     444:	e1cc30be 	strh	r3, [r12, #14]
	GraphicsCommandReg = DrawLine;
     448:	e3a03003 	mov	r3, #3
     44c:	e1cc30b0 	strh	r3, [r12]
}
     450:	e8bd0010 	ldmfd	sp!, {r4}
     454:	e12fff1e 	bx	lr

00000458 <Clear>:
/*******************************************************************************
*******************************************************************************/

void Clear(int Colour)
{
	WAIT_FOR_GRAPHICS;
     458:	e3a02000 	mov	r2, #0
     45c:	e34f2f21 	movt	r2, #65313	; 0xff21
     460:	e1d230b0 	ldrh	r3, [r2]
     464:	e3130001 	tst	r3, #1
     468:	0afffffc 	beq	460 <Clear+0x8>

	GraphicsColourReg = Colour;
     46c:	e6ff0070 	uxth	r0, r0
     470:	e3a03000 	mov	r3, #0
     474:	e34f3f21 	movt	r3, #65313	; 0xff21
     478:	e1c300be 	strh	r0, [r3, #14]
	GraphicsCommandReg = ClearScreen;
     47c:	e3a02004 	mov	r2, #4
     480:	e1c320b0 	strh	r2, [r3]
     484:	e12fff1e 	bx	lr

00000488 <FillBox>:
/*******************************************************************************
** FILLS INSIDE THE COORDINATES (DOES NOT INCLUDE THE COORDINATES THEMSELVES)
*******************************************************************************/

void FillBox(int x1, int x2, int y1, int y2, int Colour)
{
     488:	e52d4004 	push	{r4}		; (str r4, [sp, #-4]!)
	WAIT_FOR_GRAPHICS;
     48c:	e3a04000 	mov	r4, #0
     490:	e34f4f21 	movt	r4, #65313	; 0xff21
     494:	e1d4c0b0 	ldrh	r12, [r4]
     498:	e31c0001 	tst	r12, #1
     49c:	0afffffc 	beq	494 <FillBox+0xc>

	GraphicsX1Reg = x1;
     4a0:	e6ff0070 	uxth	r0, r0
     4a4:	e3a0c000 	mov	r12, #0
     4a8:	e34fcf21 	movt	r12, #65313	; 0xff21
     4ac:	e1cc00b2 	strh	r0, [r12, #2]
	GraphicsX2Reg = x2;
     4b0:	e6ff1071 	uxth	r1, r1
     4b4:	e1cc10b6 	strh	r1, [r12, #6]
	GraphicsY1Reg = y1;
     4b8:	e6ff2072 	uxth	r2, r2
     4bc:	e1cc20b4 	strh	r2, [r12, #4]
	GraphicsY2Reg = y2;	
     4c0:	e6ff3073 	uxth	r3, r3
     4c4:	e1cc30b8 	strh	r3, [r12, #8]
	GraphicsColourReg = Colour;
     4c8:	e1dd30b4 	ldrh	r3, [sp, #4]
     4cc:	e1cc30be 	strh	r3, [r12, #14]
	GraphicsCommandReg = FillBoxx;
     4d0:	e3a03005 	mov	r3, #5
     4d4:	e1cc30b0 	strh	r3, [r12]
}
     4d8:	e8bd0010 	ldmfd	sp!, {r4}
     4dc:	e12fff1e 	bx	lr

000004e0 <Box>:

/*********************************************************************************************
*********************************************************************************************/

void Box(int x1, int x2, int y1, int y2, int Colour)
{
     4e0:	e92d41f0 	push	{r4, r5, r6, r7, r8, lr}
     4e4:	e1a08000 	mov	r8, r0
     4e8:	e1a05001 	mov	r5, r1
     4ec:	e1a07002 	mov	r7, r2
     4f0:	e1a06003 	mov	r6, r3
     4f4:	e59d4018 	ldr	r4, [sp, #24]
	HLine(x1, y1, x2, Colour);
     4f8:	e1a01002 	mov	r1, r2
     4fc:	e1a02005 	mov	r2, r5
     500:	e1a03004 	mov	r3, r4
     504:	ebffff95 	bl	360 <HLine>
	VLine(x2, y1, y2, Colour);
     508:	e1a00005 	mov	r0, r5
     50c:	e1a01007 	mov	r1, r7
     510:	e1a02006 	mov	r2, r6
     514:	e1a03004 	mov	r3, r4
     518:	ebffffa4 	bl	3b0 <VLine>
	VLine(x1, y1, y2, Colour);
     51c:	e1a00008 	mov	r0, r8
     520:	e1a01007 	mov	r1, r7
     524:	e1a02006 	mov	r2, r6
     528:	e1a03004 	mov	r3, r4
     52c:	ebffff9f 	bl	3b0 <VLine>
	HLine(x1, y2, x2, Colour);
     530:	e1a00008 	mov	r0, r8
     534:	e1a01006 	mov	r1, r6
     538:	e1a02005 	mov	r2, r5
     53c:	e1a03004 	mov	r3, r4
     540:	ebffff86 	bl	360 <HLine>
     544:	e8bd81f0 	pop	{r4, r5, r6, r7, r8, pc}

00000548 <BorderedBox>:

/*********************************************************************************************
*********************************************************************************************/

void BorderedBox(int x1, int x2, int y1, int y2, int Colour, int FillColour)
{
     548:	e92d40f0 	push	{r4, r5, r6, r7, lr}
     54c:	e24dd00c 	sub	sp, sp, #12
     550:	e1a07000 	mov	r7, r0
     554:	e1a06001 	mov	r6, r1
     558:	e1a05002 	mov	r5, r2
     55c:	e1a04003 	mov	r4, r3
	FillBox(x1, x2, y1, y2, FillColour);
     560:	e59dc024 	ldr	r12, [sp, #36]	; 0x24
     564:	e58dc000 	str	r12, [sp]
     568:	ebffffc6 	bl	488 <FillBox>
	Box(x1, x2, y1, y2, Colour);
     56c:	e59d3020 	ldr	r3, [sp, #32]
     570:	e58d3000 	str	r3, [sp]
     574:	e1a00007 	mov	r0, r7
     578:	e1a01006 	mov	r1, r6
     57c:	e1a02005 	mov	r2, r5
     580:	e1a03004 	mov	r3, r4
     584:	ebffffd5 	bl	4e0 <Box>
}
     588:	e28dd00c 	add	sp, sp, #12
     58c:	e8bd80f0 	pop	{r4, r5, r6, r7, pc}

00000590 <PushPixel>:
* simple stack based around an array
* Used for FILL algorithm
******************************************************************************************************************************/

int PushPixel(XYPixel p1)
{
     590:	e24dd008 	sub	sp, sp, #8
     594:	e28d2008 	add	r2, sp, #8
     598:	e9020003 	stmdb	r2, {r0, r1}
    if(Next <= &XYStack[1000]) {
     59c:	e30730c8 	movw	r3, #28872	; 0x70c8
     5a0:	e3403001 	movt	r3, #1
     5a4:	e5933000 	ldr	r3, [r3]
     5a8:	e59f202c 	ldr	r2, [pc, #44]	; 5dc <PushPixel+0x4c>
     5ac:	e1530002 	cmp	r3, r2
        *Next++ = p1;
     5b0:	928d2008 	addls	r2, sp, #8
     5b4:	99120003 	ldmdbls	r2, {r0, r1}
     5b8:	98830003 	stmls	r3, {r0, r1}
     5bc:	930720c8 	movwls	r2, #28872	; 0x70c8
     5c0:	93402001 	movtls	r2, #1
     5c4:	92833008 	addls	r3, r3, #8
     5c8:	95823000 	strls	r3, [r2]
        return 0 ;
     5cc:	93a00000 	movls	r0, #0
    }
    else
        return -1 ;
     5d0:	83e00000 	mvnhi	r0, #0
}
     5d4:	e28dd008 	add	sp, sp, #8
     5d8:	e12fff1e 	bx	lr
     5dc:	000198f4 	.word	0x000198f4

000005e0 <PopPixel>:

int PopPixel(XYPixel *theXYPixel)
{
     5e0:	e1a0c000 	mov	r12, r0
    if(Next >= XYStack) {
     5e4:	e30730c8 	movw	r3, #28872	; 0x70c8
     5e8:	e3403001 	movt	r3, #1
     5ec:	e5931000 	ldr	r1, [r3]
     5f0:	e30739b4 	movw	r3, #31156	; 0x79b4
     5f4:	e3403001 	movt	r3, #1
     5f8:	e1510003 	cmp	r1, r3
        *theXYPixel = *(--Next);
     5fc:	230720c8 	movwcs	r2, #28872	; 0x70c8
     600:	23402001 	movtcs	r2, #1
     604:	22413008 	subcs	r3, r1, #8
     608:	25823000 	strcs	r3, [r2]
     60c:	28930003 	ldmcs	r3, {r0, r1}
     610:	288c0003 	stmcs	r12, {r0, r1}
        return 0 ;
     614:	23a00000 	movcs	r0, #0
    }
    else
        return -1 ;
     618:	33e00000 	mvncc	r0, #0
}
     61c:	e12fff1e 	bx	lr

00000620 <IsStackEmpty>:

int IsStackEmpty(void)
{
    if(Next == XYStack)
     620:	e30720c8 	movw	r2, #28872	; 0x70c8
     624:	e3402001 	movt	r2, #1
     628:	e30739b4 	movw	r3, #31156	; 0x79b4
     62c:	e3403001 	movt	r3, #1
     630:	e5920000 	ldr	r0, [r2]
        return 1 ;
    else
        return 0 ;
}
     634:	e1500003 	cmp	r0, r3
     638:	13a00000 	movne	r0, #0
     63c:	03a00001 	moveq	r0, #1
     640:	e12fff1e 	bx	lr

00000644 <Fill>:
** Taken from Procedural Elements of Computer Graphics: David Rogers
**
** Call with an [X,Y] coord inside the shape to be filled
********************************************************************************************/
void Fill(int _x, int _y, int _FillColour, int _BoundaryColour)
{
     644:	e92d4ff0 	push	{r4, r5, r6, r7, r8, r9, r10, r11, lr}
     648:	e24dd024 	sub	sp, sp, #36	; 0x24
     64c:	e58d2004 	str	r2, [sp, #4]
     650:	e1a04003 	mov	r4, r3

    int     XRight, XLeft ;
    int     SaveX, SaveY ;      		// temp variable
    XYPixel aPoint, aPoint1 ;           // temp var

    Next = XYStack ;                    // initialise to start of stack
     654:	e30720c8 	movw	r2, #28872	; 0x70c8
     658:	e3402001 	movt	r2, #1
     65c:	e307c9b4 	movw	r12, #31156	; 0x79b4
     660:	e340c001 	movt	r12, #1
     664:	e582c000 	str	r12, [r2]
    aPoint.x = _x ;
     668:	e58d0018 	str	r0, [sp, #24]
    aPoint.y = _y ;
     66c:	e58d101c 	str	r1, [sp, #28]

    PushPixel(aPoint) ;                   // push the seed
     670:	e28d3020 	add	r3, sp, #32
     674:	e9130003 	ldmdb	r3, {r0, r1}
     678:	ebffffc4 	bl	590 <PushPixel>
        WriteAPixel(x, y, FillColour);     // fill the point in the fill colour

        // fill the span to the right of the seed value
        SaveX = x++ ;                  // save the x coord of the the point we just filled and move one pixel right

        while((char)(ReadAPixel(x,y)) != (char)(BoundaryColour))							// if new pixel is not the boundary colour
     67c:	e6ef4074 	uxtb	r4, r4
     680:	e58d4008 	str	r4, [sp, #8]
		// starting from the left keep moving right looking at the pixel
        // until we find something that is neither filled nor boundary colour as it represents something on the line that may be a pixel to fill

        do {
        	PixelColour = ReadAPixel(x++,y) ;
        } while(((char)(PixelColour) == (char)(BoundaryColour)) || ((char)(PixelColour) == (char)(FillColour)) );
     684:	e59d3004 	ldr	r3, [sp, #4]
     688:	e6efb073 	uxtb	r11, r3
    aPoint.x = _x ;
    aPoint.y = _y ;

    PushPixel(aPoint) ;                   // push the seed

    while(!IsStackEmpty())                 // keep going until no more items on the stack
     68c:	ea000088 	b	8b4 <Fill+0x270>
    {
        PopPixel(&aPoint) ;                 // get a point from the stack
     690:	e28d0018 	add	r0, sp, #24
     694:	ebffffd1 	bl	5e0 <PopPixel>
        x = aPoint.x ;
     698:	e59d4018 	ldr	r4, [sp, #24]
        y = aPoint.y ;
     69c:	e59d801c 	ldr	r8, [sp, #28]
        WriteAPixel(x, y, FillColour);     // fill the point in the fill colour
     6a0:	e1a00004 	mov	r0, r4
     6a4:	e1a01008 	mov	r1, r8
     6a8:	e59d2004 	ldr	r2, [sp, #4]
     6ac:	ebfffef5 	bl	288 <WriteAPixel>

        // fill the span to the right of the seed value
        SaveX = x++ ;                  // save the x coord of the the point we just filled and move one pixel right
     6b0:	e2847001 	add	r7, r4, #1

        while((char)(ReadAPixel(x,y)) != (char)(BoundaryColour))							// if new pixel is not the boundary colour
     6b4:	ea000005 	b	6d0 <Fill+0x8c>
            WriteAPixel(x++, y, FillColour);     											// fill it and keep moving right along a horizontal line
     6b8:	e2875001 	add	r5, r7, #1
     6bc:	e1a00007 	mov	r0, r7
     6c0:	e1a01008 	mov	r1, r8
     6c4:	e59d2004 	ldr	r2, [sp, #4]
     6c8:	ebfffeee 	bl	288 <WriteAPixel>
     6cc:	e1a07005 	mov	r7, r5
        WriteAPixel(x, y, FillColour);     // fill the point in the fill colour

        // fill the span to the right of the seed value
        SaveX = x++ ;                  // save the x coord of the the point we just filled and move one pixel right

        while((char)(ReadAPixel(x,y)) != (char)(BoundaryColour))							// if new pixel is not the boundary colour
     6d0:	e1a00007 	mov	r0, r7
     6d4:	e1a01008 	mov	r1, r8
     6d8:	ebfffefa 	bl	2c8 <ReadAPixel>
     6dc:	e6ef5070 	uxtb	r5, r0
     6e0:	e59d3008 	ldr	r3, [sp, #8]
     6e4:	e1550003 	cmp	r5, r3
     6e8:	1afffff2 	bne	6b8 <Fill+0x74>
            WriteAPixel(x++, y, FillColour);     											// fill it and keep moving right along a horizontal line

        // must have found the boundary colour when moving right
        XRight = x - 1 ;		// save X coord of the last filled pixel on this line when moving right
     6ec:	e2477001 	sub	r7, r7, #1
        x = SaveX ;				// get the original starting x back

        // now fill the span to the left of the seed value

        --x ;
     6f0:	e2444001 	sub	r4, r4, #1

        while((char)(ReadAPixel(x,y)) != (char)(BoundaryColour))						// if new pixel is not the boundary colour
     6f4:	ea000005 	b	710 <Fill+0xcc>
            WriteAPixel(x--, y, FillColour);    											// fill it and keep moving left along a horizontal line
     6f8:	e2446001 	sub	r6, r4, #1
     6fc:	e1a00004 	mov	r0, r4
     700:	e1a01008 	mov	r1, r8
     704:	e59d2004 	ldr	r2, [sp, #4]
     708:	ebfffede 	bl	288 <WriteAPixel>
     70c:	e1a04006 	mov	r4, r6

        // now fill the span to the left of the seed value

        --x ;

        while((char)(ReadAPixel(x,y)) != (char)(BoundaryColour))						// if new pixel is not the boundary colour
     710:	e1a00004 	mov	r0, r4
     714:	e1a01008 	mov	r1, r8
     718:	ebfffeea 	bl	2c8 <ReadAPixel>
     71c:	e6ef0070 	uxtb	r0, r0
     720:	e1550000 	cmp	r5, r0
     724:	1afffff3 	bne	6f8 <Fill+0xb4>
            WriteAPixel(x--, y, FillColour);    											// fill it and keep moving left along a horizontal line

        XLeft = x + 1 ;			// save X coord of the last filled pixel on this line when moving left
     728:	e2844001 	add	r4, r4, #1
     72c:	e58d400c 	str	r4, [sp, #12]
        // has been previously completely filled
        //////////////////////////////////////////////////////////////////////////////////////////////////

        SaveY = y ;			// save the current y coordinate of the line we have just drawn
        x = XLeft ;			// starting at the left x
        ++y ;				// move down one line
     730:	e2886001 	add	r6, r8, #1
     734:	ea000002 	b	744 <Fill+0x100>
		// starting from the left keep moving right looking at the pixel
        // until we find something that is neither filled nor boundary colour as it represents something on the line that may be a pixel to fill

        do {
        	PixelColour = ReadAPixel(x++,y) ;
        } while(((char)(PixelColour) == (char)(BoundaryColour)) || ((char)(PixelColour) == (char)(FillColour)) );
     738:	e1a04009 	mov	r4, r9
     73c:	ea000000 	b	744 <Fill+0x100>
     740:	e1a04009 	mov	r4, r9

		// starting from the left keep moving right looking at the pixel
        // until we find something that is neither filled nor boundary colour as it represents something on the line that may be a pixel to fill

        do {
        	PixelColour = ReadAPixel(x++,y) ;
     744:	e2849001 	add	r9, r4, #1
     748:	e1a00004 	mov	r0, r4
     74c:	e1a01006 	mov	r1, r6
     750:	ebfffedc 	bl	2c8 <ReadAPixel>
        } while(((char)(PixelColour) == (char)(BoundaryColour)) || ((char)(PixelColour) == (char)(FillColour)) );
     754:	e6ef0070 	uxtb	r0, r0
     758:	e1550000 	cmp	r5, r0
     75c:	0afffff5 	beq	738 <Fill+0xf4>
     760:	e1a0a00b 	mov	r10, r11
     764:	e150000b 	cmp	r0, r11
     768:	0afffff4 	beq	740 <Fill+0xfc>

         x-- ;

        // to get here we must have found something that needs filling i.e. the above loop found that the line below was not a complete boundary edge or filled
		// if we are still less than the previous right most X coord then it would be a new point that we need to seed
        while(x <= XRight)
     76c:	e1570004 	cmp	r7, r4
     770:	ba00001e 	blt	7f0 <Fill+0x1ac>
        {
            // seed the scan line below
        	// if the pixel at x,y is not a boundary colour and less than extreme right

        	// skip over any pixels already filled
            while(((char)(ReadAPixel(x,y)) != (char)(BoundaryColour)) && (x <= XRight))
     774:	e1a00004 	mov	r0, r4
     778:	e1a01006 	mov	r1, r6
     77c:	ebfffed1 	bl	2c8 <ReadAPixel>
     780:	e6ef0070 	uxtb	r0, r0
     784:	e1550000 	cmp	r5, r0
     788:	0a000002 	beq	798 <Fill+0x154>
     78c:	e1540007 	cmp	r4, r7
               ++x ;
     790:	d2844001 	addle	r4, r4, #1
        {
            // seed the scan line below
        	// if the pixel at x,y is not a boundary colour and less than extreme right

        	// skip over any pixels already filled
            while(((char)(ReadAPixel(x,y)) != (char)(BoundaryColour)) && (x <= XRight))
     794:	dafffff6 	ble	774 <Fill+0x130>
               ++x ;

            // push the  extreme right pixel onto the stack
            aPoint1.x = x - 1 ;
     798:	e2443001 	sub	r3, r4, #1
     79c:	e58d3010 	str	r3, [sp, #16]
            aPoint1.y = y ;
     7a0:	e58d6014 	str	r6, [sp, #20]
            PushPixel(aPoint1) ;
     7a4:	e28d3010 	add	r3, sp, #16
     7a8:	e8930003 	ldm	r3, {r0, r1}
     7ac:	ebffff77 	bl	590 <PushPixel>

            // continue checking in case the span is interrupted by another shape inside the one we are trying to fill

            ++x ;
     7b0:	e2844001 	add	r4, r4, #1
     7b4:	ea000002 	b	7c4 <Fill+0x180>

            // skip over anything that is filled or boundary (i.e. other shape) inside the one we are trying to fill
            do {
            	PixelColour = ReadAPixel(x++,y) ;
            } while(((char)(PixelColour) == (char)(BoundaryColour)) || ((char)(PixelColour) == (char)(FillColour)) );
     7b8:	e1a04009 	mov	r4, r9
     7bc:	ea000000 	b	7c4 <Fill+0x180>
     7c0:	e1a04009 	mov	r4, r9

            ++x ;

            // skip over anything that is filled or boundary (i.e. other shape) inside the one we are trying to fill
            do {
            	PixelColour = ReadAPixel(x++,y) ;
     7c4:	e2849001 	add	r9, r4, #1
     7c8:	e1a00004 	mov	r0, r4
     7cc:	e1a01006 	mov	r1, r6
     7d0:	ebfffebc 	bl	2c8 <ReadAPixel>
            } while(((char)(PixelColour) == (char)(BoundaryColour)) || ((char)(PixelColour) == (char)(FillColour)) );
     7d4:	e6ef0070 	uxtb	r0, r0
     7d8:	e1550000 	cmp	r5, r0
     7dc:	0afffff5 	beq	7b8 <Fill+0x174>
     7e0:	e15a0000 	cmp	r10, r0
     7e4:	0afffff5 	beq	7c0 <Fill+0x17c>

         x-- ;

        // to get here we must have found something that needs filling i.e. the above loop found that the line below was not a complete boundary edge or filled
		// if we are still less than the previous right most X coord then it would be a new point that we need to seed
        while(x <= XRight)
     7e8:	e1570004 	cmp	r7, r4
     7ec:	aaffffe0 	bge	774 <Fill+0x130>
    // check that the scan line above is neither a polygon boundary nor
    // has been previously completely filled

        y = SaveY;
        x = XLeft ;
        --y ;
     7f0:	e2488001 	sub	r8, r8, #1
	 ///////////////////////////////////////////////////////////////////////////////////////////////////
    // check that the scan line above is neither a polygon boundary nor
    // has been previously completely filled

        y = SaveY;
        x = XLeft ;
     7f4:	e59d400c 	ldr	r4, [sp, #12]
     7f8:	ea000002 	b	808 <Fill+0x1c4>
        --y ;

        do {
        	PixelColour = ReadAPixel(x++,y) ;
        } while(((char)(PixelColour) == (char)(BoundaryColour)) || ((char)(PixelColour) == (char)(FillColour)) );
     7fc:	e1a04006 	mov	r4, r6
     800:	ea000000 	b	808 <Fill+0x1c4>
     804:	e1a04006 	mov	r4, r6
        y = SaveY;
        x = XLeft ;
        --y ;

        do {
        	PixelColour = ReadAPixel(x++,y) ;
     808:	e2846001 	add	r6, r4, #1
     80c:	e1a00004 	mov	r0, r4
     810:	e1a01008 	mov	r1, r8
     814:	ebfffeab 	bl	2c8 <ReadAPixel>
        } while(((char)(PixelColour) == (char)(BoundaryColour)) || ((char)(PixelColour) == (char)(FillColour)) );
     818:	e6ef0070 	uxtb	r0, r0
     81c:	e1550000 	cmp	r5, r0
     820:	0afffff5 	beq	7fc <Fill+0x1b8>
     824:	e15a0000 	cmp	r10, r0
     828:	0afffff5 	beq	804 <Fill+0x1c0>

         x-- ;

        while(x <= XRight)		// if we have not reached the boundary
     82c:	e1570004 	cmp	r7, r4
     830:	ba00001f 	blt	8b4 <Fill+0x270>
     834:	eaffffff 	b	838 <Fill+0x1f4>
        {
            // seed the scan line below
            while(((char)(ReadAPixel(x,y)) != (char)(BoundaryColour)) && (x <= XRight))
     838:	e1a00004 	mov	r0, r4
     83c:	e1a01008 	mov	r1, r8
     840:	ebfffea0 	bl	2c8 <ReadAPixel>
     844:	e6ef0070 	uxtb	r0, r0
     848:	e1550000 	cmp	r5, r0
     84c:	0a000002 	beq	85c <Fill+0x218>
     850:	e1540007 	cmp	r4, r7
               ++x ;		// look for right most x inside the boudan
     854:	d2844001 	addle	r4, r4, #1
         x-- ;

        while(x <= XRight)		// if we have not reached the boundary
        {
            // seed the scan line below
            while(((char)(ReadAPixel(x,y)) != (char)(BoundaryColour)) && (x <= XRight))
     858:	dafffff6 	ble	838 <Fill+0x1f4>
               ++x ;		// look for right most x inside the boudan

            // push the  extreme right pixel onto the stack
            aPoint1.x = x - 1 ;
     85c:	e2443001 	sub	r3, r4, #1
     860:	e58d3010 	str	r3, [sp, #16]
            aPoint1.y = y ;
     864:	e58d8014 	str	r8, [sp, #20]
            PushPixel(aPoint1) ;
     868:	e28d3010 	add	r3, sp, #16
     86c:	e8930003 	ldm	r3, {r0, r1}
     870:	ebffff46 	bl	590 <PushPixel>

            // continue checking in case the span is interrupted
            ++x ;
     874:	e2844001 	add	r4, r4, #1
     878:	ea000002 	b	888 <Fill+0x244>

            do {
            	PixelColour = ReadAPixel(x++,y) ;
            } while(((char)(PixelColour) == (char)(BoundaryColour)) || ((char)(PixelColour) == (char)(FillColour)) );
     87c:	e1a04006 	mov	r4, r6
     880:	ea000000 	b	888 <Fill+0x244>
     884:	e1a04006 	mov	r4, r6

            // continue checking in case the span is interrupted
            ++x ;

            do {
            	PixelColour = ReadAPixel(x++,y) ;
     888:	e2846001 	add	r6, r4, #1
     88c:	e1a00004 	mov	r0, r4
     890:	e1a01008 	mov	r1, r8
     894:	ebfffe8b 	bl	2c8 <ReadAPixel>
            } while(((char)(PixelColour) == (char)(BoundaryColour)) || ((char)(PixelColour) == (char)(FillColour)) );
     898:	e6ef0070 	uxtb	r0, r0
     89c:	e1550000 	cmp	r5, r0
     8a0:	0afffff5 	beq	87c <Fill+0x238>
     8a4:	e15a0000 	cmp	r10, r0
     8a8:	0afffff5 	beq	884 <Fill+0x240>
        	PixelColour = ReadAPixel(x++,y) ;
        } while(((char)(PixelColour) == (char)(BoundaryColour)) || ((char)(PixelColour) == (char)(FillColour)) );

         x-- ;

        while(x <= XRight)		// if we have not reached the boundary
     8ac:	e1570004 	cmp	r7, r4
     8b0:	aaffffe0 	bge	838 <Fill+0x1f4>
    aPoint.x = _x ;
    aPoint.y = _y ;

    PushPixel(aPoint) ;                   // push the seed

    while(!IsStackEmpty())                 // keep going until no more items on the stack
     8b4:	ebffff59 	bl	620 <IsStackEmpty>
     8b8:	e3500000 	cmp	r0, #0
     8bc:	0affff73 	beq	690 <Fill+0x4c>
             x-- ;
        }
       	x = SaveX ;
       	y = SaveY ;
    }
     8c0:	e28dd024 	add	sp, sp, #36	; 0x24
     8c4:	e8bd8ff0 	pop	{r4, r5, r6, r7, r8, r9, r10, r11, pc}

000008c8 <ResetScreen>:
#include "Text.h"
#include "Touchscreen.h"

#include <stdio.h>

void ResetScreen(void) {
     8c8:	e52de004 	push	{lr}		; (str lr, [sp, #-4]!)
     8cc:	e24dd00c 	sub	sp, sp, #12
	//Clear screen
	Clear(WHITE);
     8d0:	e3a00001 	mov	r0, #1
     8d4:	ebfffedf 	bl	458 <Clear>
	//Create outer border
	Box(20, 799, 0, 479, BLUE);
     8d8:	e3a03004 	mov	r3, #4
     8dc:	e58d3000 	str	r3, [sp]
     8e0:	e3a00014 	mov	r0, #20
     8e4:	e300131f 	movw	r1, #799	; 0x31f
     8e8:	e3a02000 	mov	r2, #0
     8ec:	e30031df 	movw	r3, #479	; 0x1df
     8f0:	ebfffefa 	bl	4e0 <Box>
}
     8f4:	e28dd00c 	add	sp, sp, #12
     8f8:	e8bd8000 	ldmfd	sp!, {pc}

000008fc <BackButton>:
		}
	}
}

//Widgets
void BackButton(void) {
     8fc:	e52de004 	push	{lr}		; (str lr, [sp, #-4]!)
     900:	e24dd00c 	sub	sp, sp, #12
	Box(26, 75, 3, 52, BLUE);
     904:	e3a03004 	mov	r3, #4
     908:	e58d3000 	str	r3, [sp]
     90c:	e3a0001a 	mov	r0, #26
     910:	e3a0104b 	mov	r1, #75	; 0x4b
     914:	e3a02003 	mov	r2, #3
     918:	e3a03034 	mov	r3, #52	; 0x34
     91c:	ebfffeef 	bl	4e0 <Box>
	//TODO
}
     920:	e28dd00c 	add	sp, sp, #12
     924:	e8bd8000 	ldmfd	sp!, {pc}

00000928 <SearchScreen>:
			break;
		}
	}
}

void SearchScreen(void) {
     928:	e92d4ff0 	push	{r4, r5, r6, r7, r8, r9, r10, r11, lr}
     92c:	e24dd06c 	sub	sp, sp, #108	; 0x6c
	ResetScreen();
     930:	ebffffe4 	bl	8c8 <ResetScreen>
	BackButton();
     934:	ebfffff0 	bl	8fc <BackButton>
	
	CenteredSentence(FONT2, 30, 789, 0, 55, FOREST_GREEN, 0, "Search By Category", DONT_ERASE);
     938:	e3a03037 	mov	r3, #55	; 0x37
     93c:	e58d3000 	str	r3, [sp]
     940:	e3a0302e 	mov	r3, #46	; 0x2e
     944:	e58d3004 	str	r3, [sp, #4]
     948:	e3a03000 	mov	r3, #0
     94c:	e58d3008 	str	r3, [sp, #8]
     950:	e3062d48 	movw	r2, #27976	; 0x6d48
     954:	e3402001 	movt	r2, #1
     958:	e58d200c 	str	r2, [sp, #12]
     95c:	e58d3010 	str	r3, [sp, #16]
     960:	e3a00002 	mov	r0, #2
     964:	e3a0101e 	mov	r1, #30
     968:	e3002315 	movw	r2, #789	; 0x315
     96c:	eb000296 	bl	13cc <CenteredSentence>
	
	/*temporary data from home depot
	********************************
	*/
	int num_categories = 15; //will be dynamic data (max 15 categories)
	char *categories[] = {"Appliances", "Bath", "Building Materials", "Decor & Blinds", "Electrical", "Floors & Area Rugs", "Furniture", 
     970:	e28de02c 	add	lr, sp, #44	; 0x2c
     974:	e306cce4 	movw	r12, #27876	; 0x6ce4
     978:	e340c001 	movt	r12, #1
     97c:	e8bc000f 	ldm	r12!, {r0, r1, r2, r3}
     980:	e8ae000f 	stmia	lr!, {r0, r1, r2, r3}
     984:	e8bc000f 	ldm	r12!, {r0, r1, r2, r3}
     988:	e8ae000f 	stmia	lr!, {r0, r1, r2, r3}
     98c:	e8bc000f 	ldm	r12!, {r0, r1, r2, r3}
     990:	e8ae000f 	stmia	lr!, {r0, r1, r2, r3}
     994:	e89c0007 	ldm	r12, {r0, r1, r2}
     998:	e88e0007 	stm	lr, {r0, r1, r2}
			break;
		}
	}
}

void SearchScreen(void) {
     99c:	e28da028 	add	r10, sp, #40	; 0x28
	
	/*temporary data from home depot
	********************************
	*/
	int num_categories = 15; //will be dynamic data (max 15 categories)
	char *categories[] = {"Appliances", "Bath", "Building Materials", "Decor & Blinds", "Electrical", "Floors & Area Rugs", "Furniture", 
     9a0:	e3a04038 	mov	r4, #56	; 0x38
	
	int i;
	//first column
	for(i = 0; i < num_categories && i < 5; i++) {
		// BorderedBox(26, 277, 56+i*86, 135+i*86, BLUE, FOREST_GREEN);
		Box(26, 277, 56+i*86, 135+i*86, BLUE);
     9a4:	e3a08004 	mov	r8, #4
     9a8:	e3a0701a 	mov	r7, #26
     9ac:	e3006115 	movw	r6, #277	; 0x115
		Fill(27, 56+i*86+1, FOREST_GREEN, BLUE);
     9b0:	e3a0b01b 	mov	r11, #27
     9b4:	e3a0902e 	mov	r9, #46	; 0x2e
			break;
		}
	}
}

void SearchScreen(void) {
     9b8:	e284504f 	add	r5, r4, #79	; 0x4f
	
	int i;
	//first column
	for(i = 0; i < num_categories && i < 5; i++) {
		// BorderedBox(26, 277, 56+i*86, 135+i*86, BLUE, FOREST_GREEN);
		Box(26, 277, 56+i*86, 135+i*86, BLUE);
     9bc:	e58d8000 	str	r8, [sp]
     9c0:	e1a00007 	mov	r0, r7
     9c4:	e1a01006 	mov	r1, r6
     9c8:	e1a02004 	mov	r2, r4
     9cc:	e1a03005 	mov	r3, r5
     9d0:	ebfffec2 	bl	4e0 <Box>
		Fill(27, 56+i*86+1, FOREST_GREEN, BLUE);
     9d4:	e1a0000b 	mov	r0, r11
     9d8:	e2841001 	add	r1, r4, #1
     9dc:	e1a02009 	mov	r2, r9
     9e0:	e1a03008 	mov	r3, r8
     9e4:	ebffff16 	bl	644 <Fill>
		CenteredSentence(FONT2, 26, 277, 56+i*86, 135+i*86, WHITE, 0, categories[i], DONT_ERASE);
     9e8:	e58d5000 	str	r5, [sp]
     9ec:	e3a03001 	mov	r3, #1
     9f0:	e58d3004 	str	r3, [sp, #4]
     9f4:	e3a03000 	mov	r3, #0
     9f8:	e58d3008 	str	r3, [sp, #8]
     9fc:	e5ba2004 	ldr	r2, [r10, #4]!
     a00:	e58d200c 	str	r2, [sp, #12]
     a04:	e58d3010 	str	r3, [sp, #16]
     a08:	e3a00002 	mov	r0, #2
     a0c:	e1a01007 	mov	r1, r7
     a10:	e1a02006 	mov	r2, r6
     a14:	e1a03004 	mov	r3, r4
     a18:	eb00026b 	bl	13cc <CenteredSentence>
     a1c:	e2844056 	add	r4, r4, #86	; 0x56
			"Hardware", "Kitchen", "Lighting & Fans", "Outdoors", "Paint", "Storage & Organization", "Tools", "Windows & Doors"};
	/******************************/
	
	int i;
	//first column
	for(i = 0; i < num_categories && i < 5; i++) {
     a20:	e30031e6 	movw	r3, #486	; 0x1e6
     a24:	e1540003 	cmp	r4, r3
     a28:	1affffe2 	bne	9b8 <SearchScreen+0x90>
     a2c:	e28da03c 	add	r10, sp, #60	; 0x3c
     a30:	e3a04038 	mov	r4, #56	; 0x38
	}
	
	//second column
	for(i = 0; i < (num_categories - 5) && i < 5; i++) {
		// BorderedBox(284, 535, 56+i*86, 135+i*86, BLUE, FOREST_GREEN);
		Box(284, 535, 56+i*86, 135+i*86, BLUE);
     a34:	e3a08004 	mov	r8, #4
     a38:	e3a07f47 	mov	r7, #284	; 0x11c
     a3c:	e3006217 	movw	r6, #535	; 0x217
		Fill(285, 56+i*86+1, FOREST_GREEN, BLUE);
     a40:	e300b11d 	movw	r11, #285	; 0x11d
     a44:	e3a0902e 	mov	r9, #46	; 0x2e
			break;
		}
	}
}

void SearchScreen(void) {
     a48:	e284504f 	add	r5, r4, #79	; 0x4f
	}
	
	//second column
	for(i = 0; i < (num_categories - 5) && i < 5; i++) {
		// BorderedBox(284, 535, 56+i*86, 135+i*86, BLUE, FOREST_GREEN);
		Box(284, 535, 56+i*86, 135+i*86, BLUE);
     a4c:	e58d8000 	str	r8, [sp]
     a50:	e1a00007 	mov	r0, r7
     a54:	e1a01006 	mov	r1, r6
     a58:	e1a02004 	mov	r2, r4
     a5c:	e1a03005 	mov	r3, r5
     a60:	ebfffe9e 	bl	4e0 <Box>
		Fill(285, 56+i*86+1, FOREST_GREEN, BLUE);
     a64:	e1a0000b 	mov	r0, r11
     a68:	e2841001 	add	r1, r4, #1
     a6c:	e1a02009 	mov	r2, r9
     a70:	e1a03008 	mov	r3, r8
     a74:	ebfffef2 	bl	644 <Fill>
		CenteredSentence(FONT2, 284, 535, 56+i*86, 135+i*86, WHITE, 0, categories[i+5], DONT_ERASE);
     a78:	e58d5000 	str	r5, [sp]
     a7c:	e3a03001 	mov	r3, #1
     a80:	e58d3004 	str	r3, [sp, #4]
     a84:	e3a03000 	mov	r3, #0
     a88:	e58d3008 	str	r3, [sp, #8]
     a8c:	e5ba2004 	ldr	r2, [r10, #4]!
     a90:	e58d200c 	str	r2, [sp, #12]
     a94:	e58d3010 	str	r3, [sp, #16]
     a98:	e3a00002 	mov	r0, #2
     a9c:	e1a01007 	mov	r1, r7
     aa0:	e1a02006 	mov	r2, r6
     aa4:	e1a03004 	mov	r3, r4
     aa8:	eb000247 	bl	13cc <CenteredSentence>
     aac:	e2844056 	add	r4, r4, #86	; 0x56
		Fill(27, 56+i*86+1, FOREST_GREEN, BLUE);
		CenteredSentence(FONT2, 26, 277, 56+i*86, 135+i*86, WHITE, 0, categories[i], DONT_ERASE);
	}
	
	//second column
	for(i = 0; i < (num_categories - 5) && i < 5; i++) {
     ab0:	e30031e6 	movw	r3, #486	; 0x1e6
     ab4:	e1540003 	cmp	r4, r3
     ab8:	1affffe2 	bne	a48 <SearchScreen+0x120>
     abc:	e28da050 	add	r10, sp, #80	; 0x50
     ac0:	e3a04038 	mov	r4, #56	; 0x38
	}
	
	//third column
	for(i = 0; i < (num_categories - 10) && i < 5; i++) {
		// BorderedBox(542, 793, 56+i*86, 135+i*86, BLUE, FOREST_GREEN);
		Box(542, 793, 56+i*86, 135+i*86, BLUE);
     ac4:	e3a08004 	mov	r8, #4
     ac8:	e300721e 	movw	r7, #542	; 0x21e
     acc:	e3006319 	movw	r6, #793	; 0x319
		Fill(543, 56+i*86+1, FOREST_GREEN, BLUE);
     ad0:	e300b21f 	movw	r11, #543	; 0x21f
     ad4:	e3a0902e 	mov	r9, #46	; 0x2e
			break;
		}
	}
}

void SearchScreen(void) {
     ad8:	e284504f 	add	r5, r4, #79	; 0x4f
	}
	
	//third column
	for(i = 0; i < (num_categories - 10) && i < 5; i++) {
		// BorderedBox(542, 793, 56+i*86, 135+i*86, BLUE, FOREST_GREEN);
		Box(542, 793, 56+i*86, 135+i*86, BLUE);
     adc:	e58d8000 	str	r8, [sp]
     ae0:	e1a00007 	mov	r0, r7
     ae4:	e1a01006 	mov	r1, r6
     ae8:	e1a02004 	mov	r2, r4
     aec:	e1a03005 	mov	r3, r5
     af0:	ebfffe7a 	bl	4e0 <Box>
		Fill(543, 56+i*86+1, FOREST_GREEN, BLUE);
     af4:	e1a0000b 	mov	r0, r11
     af8:	e2841001 	add	r1, r4, #1
     afc:	e1a02009 	mov	r2, r9
     b00:	e1a03008 	mov	r3, r8
     b04:	ebfffece 	bl	644 <Fill>
		CenteredSentence(FONT2, 542, 793, 56+i*86, 135+i*86, WHITE, 0, categories[i+10], DONT_ERASE);
     b08:	e58d5000 	str	r5, [sp]
     b0c:	e3a03001 	mov	r3, #1
     b10:	e58d3004 	str	r3, [sp, #4]
     b14:	e3a03000 	mov	r3, #0
     b18:	e58d3008 	str	r3, [sp, #8]
     b1c:	e5ba2004 	ldr	r2, [r10, #4]!
     b20:	e58d200c 	str	r2, [sp, #12]
     b24:	e58d3010 	str	r3, [sp, #16]
     b28:	e3a00002 	mov	r0, #2
     b2c:	e1a01007 	mov	r1, r7
     b30:	e1a02006 	mov	r2, r6
     b34:	e1a03004 	mov	r3, r4
     b38:	eb000223 	bl	13cc <CenteredSentence>
     b3c:	e2844056 	add	r4, r4, #86	; 0x56
		Fill(285, 56+i*86+1, FOREST_GREEN, BLUE);
		CenteredSentence(FONT2, 284, 535, 56+i*86, 135+i*86, WHITE, 0, categories[i+5], DONT_ERASE);
	}
	
	//third column
	for(i = 0; i < (num_categories - 10) && i < 5; i++) {
     b40:	e30031e6 	movw	r3, #486	; 0x1e6
     b44:	e1540003 	cmp	r4, r3
     b48:	1affffe2 	bne	ad8 <SearchScreen+0x1b0>
	
	//Touchscreen
	Point p;
	while(1) {
		p = GetPress();
		printf("Press: x = %d, y = %d\n", p.x, p.y);
     b4c:	e3066d5c 	movw	r6, #27996	; 0x6d5c
     b50:	e3406001 	movt	r6, #1
	}
	
	//Touchscreen
	Point p;
	while(1) {
		p = GetPress();
     b54:	e28d0024 	add	r0, sp, #36	; 0x24
     b58:	eb0002bc 	bl	1650 <GetPress>
     b5c:	e59d4024 	ldr	r4, [sp, #36]	; 0x24
     b60:	e59d5028 	ldr	r5, [sp, #40]	; 0x28
		printf("Press: x = %d, y = %d\n", p.x, p.y);
     b64:	e1a00006 	mov	r0, r6
     b68:	e1a01004 	mov	r1, r4
     b6c:	e1a02005 	mov	r2, r5
     b70:	eb0002f1 	bl	173c <printf>
		GetRelease();
     b74:	e28d0018 	add	r0, sp, #24
     b78:	eb00029b 	bl	15ec <GetRelease>
		if(p.x > 26 && p.x < 75 && p.y > 3 && p.y < 52) {
     b7c:	e244401b 	sub	r4, r4, #27
     b80:	e354002f 	cmp	r4, #47	; 0x2f
     b84:	8afffff2 	bhi	b54 <SearchScreen+0x22c>
     b88:	e3550003 	cmp	r5, #3
     b8c:	dafffff0 	ble	b54 <SearchScreen+0x22c>
     b90:	e3550033 	cmp	r5, #51	; 0x33
     b94:	caffffee 	bgt	b54 <SearchScreen+0x22c>
			HomeMenu();
     b98:	eb000001 	bl	ba4 <HomeMenu>
			// break;
		// } else if(p.x > 30 && p.x < 789 && p.y > 360 && p.y < 469) {
			// break;
		// }
	}
}
     b9c:	e28dd06c 	add	sp, sp, #108	; 0x6c
     ba0:	e8bd8ff0 	pop	{r4, r5, r6, r7, r8, r9, r10, r11, pc}

00000ba4 <HomeMenu>:
	Clear(WHITE);
	//Create outer border
	Box(20, 799, 0, 479, BLUE);
}

void HomeMenu(void) {
     ba4:	e92d40f0 	push	{r4, r5, r6, r7, lr}
     ba8:	e24dd02c 	sub	sp, sp, #44	; 0x2c
	ResetScreen();
     bac:	ebffff45 	bl	8c8 <ResetScreen>
	
	// BorderedBox(30, 789, 10, 109, BLUE, FOREST_GREEN);
	// BorderedBox(30, 789, 120, 229, BLUE, FOREST_GREEN);
	// BorderedBox(30, 789, 240, 349, BLUE, FOREST_GREEN);
	// BorderedBox(30, 789, 360, 469, BLUE, FOREST_GREEN);
	Box(30, 789, 10, 109, BLUE);
     bb0:	e3a04004 	mov	r4, #4
     bb4:	e58d4000 	str	r4, [sp]
     bb8:	e3a0001e 	mov	r0, #30
     bbc:	e3001315 	movw	r1, #789	; 0x315
     bc0:	e3a0200a 	mov	r2, #10
     bc4:	e3a0306d 	mov	r3, #109	; 0x6d
     bc8:	ebfffe44 	bl	4e0 <Box>
	Box(30, 789, 120, 229, BLUE);
     bcc:	e58d4000 	str	r4, [sp]
     bd0:	e3a0001e 	mov	r0, #30
     bd4:	e3001315 	movw	r1, #789	; 0x315
     bd8:	e3a02078 	mov	r2, #120	; 0x78
     bdc:	e3a030e5 	mov	r3, #229	; 0xe5
     be0:	ebfffe3e 	bl	4e0 <Box>
	Box(30, 789, 240, 349, BLUE);
     be4:	e58d4000 	str	r4, [sp]
     be8:	e3a0001e 	mov	r0, #30
     bec:	e3001315 	movw	r1, #789	; 0x315
     bf0:	e3a020f0 	mov	r2, #240	; 0xf0
     bf4:	e300315d 	movw	r3, #349	; 0x15d
     bf8:	ebfffe38 	bl	4e0 <Box>
	Box(30, 789, 360, 469, BLUE);
     bfc:	e58d4000 	str	r4, [sp]
     c00:	e3a0001e 	mov	r0, #30
     c04:	e3001315 	movw	r1, #789	; 0x315
     c08:	e3a02f5a 	mov	r2, #360	; 0x168
     c0c:	e30031d5 	movw	r3, #469	; 0x1d5
     c10:	ebfffe32 	bl	4e0 <Box>
	Fill(31, 11, FOREST_GREEN, BLUE);
     c14:	e3a0001f 	mov	r0, #31
     c18:	e3a0100b 	mov	r1, #11
     c1c:	e3a0202e 	mov	r2, #46	; 0x2e
     c20:	e1a03004 	mov	r3, r4
     c24:	ebfffe86 	bl	644 <Fill>
	Fill(31, 121, FOREST_GREEN, BLUE);
     c28:	e3a0001f 	mov	r0, #31
     c2c:	e3a01079 	mov	r1, #121	; 0x79
     c30:	e3a0202e 	mov	r2, #46	; 0x2e
     c34:	e1a03004 	mov	r3, r4
     c38:	ebfffe81 	bl	644 <Fill>
	Fill(31, 241, FOREST_GREEN, BLUE);
     c3c:	e3a0001f 	mov	r0, #31
     c40:	e3a010f1 	mov	r1, #241	; 0xf1
     c44:	e3a0202e 	mov	r2, #46	; 0x2e
     c48:	e1a03004 	mov	r3, r4
     c4c:	ebfffe7c 	bl	644 <Fill>
	Fill(31, 361, FOREST_GREEN, BLUE);
     c50:	e3a0001f 	mov	r0, #31
     c54:	e3001169 	movw	r1, #361	; 0x169
     c58:	e3a0202e 	mov	r2, #46	; 0x2e
     c5c:	e1a03004 	mov	r3, r4
     c60:	ebfffe77 	bl	644 <Fill>
	CenteredSentence(FONT2, 30, 789, 10, 109, WHITE, 0, "Create New Shopping List", DONT_ERASE);
     c64:	e3a0306d 	mov	r3, #109	; 0x6d
     c68:	e58d3000 	str	r3, [sp]
     c6c:	e3a05001 	mov	r5, #1
     c70:	e58d5004 	str	r5, [sp, #4]
     c74:	e3a04000 	mov	r4, #0
     c78:	e58d4008 	str	r4, [sp, #8]
     c7c:	e3063d74 	movw	r3, #28020	; 0x6d74
     c80:	e3403001 	movt	r3, #1
     c84:	e58d300c 	str	r3, [sp, #12]
     c88:	e58d4010 	str	r4, [sp, #16]
     c8c:	e3a00002 	mov	r0, #2
     c90:	e3a0101e 	mov	r1, #30
     c94:	e3002315 	movw	r2, #789	; 0x315
     c98:	e3a0300a 	mov	r3, #10
     c9c:	eb0001ca 	bl	13cc <CenteredSentence>
	CenteredSentence(FONT2, 30, 789, 120, 229, WHITE, 0, "Add To Shopping List", DONT_ERASE);
     ca0:	e3a030e5 	mov	r3, #229	; 0xe5
     ca4:	e58d3000 	str	r3, [sp]
     ca8:	e58d5004 	str	r5, [sp, #4]
     cac:	e58d4008 	str	r4, [sp, #8]
     cb0:	e3063d90 	movw	r3, #28048	; 0x6d90
     cb4:	e3403001 	movt	r3, #1
     cb8:	e58d300c 	str	r3, [sp, #12]
     cbc:	e58d4010 	str	r4, [sp, #16]
     cc0:	e3a00002 	mov	r0, #2
     cc4:	e3a0101e 	mov	r1, #30
     cc8:	e3002315 	movw	r2, #789	; 0x315
     ccc:	e3a03078 	mov	r3, #120	; 0x78
     cd0:	eb0001bd 	bl	13cc <CenteredSentence>
	CenteredSentence(FONT2, 30, 789, 240, 349, WHITE, 0, "Go To Map", DONT_ERASE);
     cd4:	e300315d 	movw	r3, #349	; 0x15d
     cd8:	e58d3000 	str	r3, [sp]
     cdc:	e58d5004 	str	r5, [sp, #4]
     ce0:	e58d4008 	str	r4, [sp, #8]
     ce4:	e3063da8 	movw	r3, #28072	; 0x6da8
     ce8:	e3403001 	movt	r3, #1
     cec:	e58d300c 	str	r3, [sp, #12]
     cf0:	e58d4010 	str	r4, [sp, #16]
     cf4:	e3a00002 	mov	r0, #2
     cf8:	e3a0101e 	mov	r1, #30
     cfc:	e3002315 	movw	r2, #789	; 0x315
     d00:	e3a030f0 	mov	r3, #240	; 0xf0
     d04:	eb0001b0 	bl	13cc <CenteredSentence>
	CenteredSentence(FONT2, 30, 789, 360, 469, WHITE, 0, "Help", DONT_ERASE);
     d08:	e30031d5 	movw	r3, #469	; 0x1d5
     d0c:	e58d3000 	str	r3, [sp]
     d10:	e58d5004 	str	r5, [sp, #4]
     d14:	e58d4008 	str	r4, [sp, #8]
     d18:	e3063db4 	movw	r3, #28084	; 0x6db4
     d1c:	e3403001 	movt	r3, #1
     d20:	e58d300c 	str	r3, [sp, #12]
     d24:	e58d4010 	str	r4, [sp, #16]
     d28:	e3a00002 	mov	r0, #2
     d2c:	e3a0101e 	mov	r1, #30
     d30:	e3002315 	movw	r2, #789	; 0x315
     d34:	e3a03f5a 	mov	r3, #360	; 0x168
     d38:	eb0001a3 	bl	13cc <CenteredSentence>
	
	//Touchscreen
	Point p;
	while(1) {
		p = GetPress();
		printf("Press: x = %d, y = %d\n", p.x, p.y);
     d3c:	e3066d5c 	movw	r6, #27996	; 0x6d5c
     d40:	e3406001 	movt	r6, #1
		GetRelease();
		if(p.x > 30 && p.x < 789 && p.y > 10 && p.y < 109) {
     d44:	e30072f5 	movw	r7, #757	; 0x2f5
	CenteredSentence(FONT2, 30, 789, 360, 469, WHITE, 0, "Help", DONT_ERASE);
	
	//Touchscreen
	Point p;
	while(1) {
		p = GetPress();
     d48:	e28d0020 	add	r0, sp, #32
     d4c:	eb00023f 	bl	1650 <GetPress>
     d50:	e59d5020 	ldr	r5, [sp, #32]
     d54:	e59d4024 	ldr	r4, [sp, #36]	; 0x24
		printf("Press: x = %d, y = %d\n", p.x, p.y);
     d58:	e1a00006 	mov	r0, r6
     d5c:	e1a01005 	mov	r1, r5
     d60:	e1a02004 	mov	r2, r4
     d64:	eb000274 	bl	173c <printf>
		GetRelease();
     d68:	e28d0018 	add	r0, sp, #24
     d6c:	eb00021e 	bl	15ec <GetRelease>
		if(p.x > 30 && p.x < 789 && p.y > 10 && p.y < 109) {
     d70:	e245501f 	sub	r5, r5, #31
     d74:	e1550007 	cmp	r5, r7
     d78:	8afffff2 	bhi	d48 <HomeMenu+0x1a4>
     d7c:	e354000a 	cmp	r4, #10
     d80:	da000003 	ble	d94 <HomeMenu+0x1f0>
     d84:	e354006c 	cmp	r4, #108	; 0x6c
     d88:	ca000001 	bgt	d94 <HomeMenu+0x1f0>
			SearchScreen();
     d8c:	ebfffee5 	bl	928 <SearchScreen>
			break;
     d90:	ea00000d 	b	dcc <HomeMenu+0x228>
		} else if(p.x > 30 && p.x < 789 && p.y > 120 && p.y < 229) {
     d94:	e3540078 	cmp	r4, #120	; 0x78
     d98:	da000003 	ble	dac <HomeMenu+0x208>
     d9c:	e35400e4 	cmp	r4, #228	; 0xe4
     da0:	ca000001 	bgt	dac <HomeMenu+0x208>
			SearchScreen();
     da4:	ebfffedf 	bl	928 <SearchScreen>
			break;
     da8:	ea000007 	b	dcc <HomeMenu+0x228>
		} else if(p.x > 30 && p.x < 789 && p.y > 240 && p.y < 349) {
     dac:	e35400f0 	cmp	r4, #240	; 0xf0
     db0:	da000001 	ble	dbc <HomeMenu+0x218>
     db4:	e3540f57 	cmp	r4, #348	; 0x15c
     db8:	da000003 	ble	dcc <HomeMenu+0x228>
			break;
		} else if(p.x > 30 && p.x < 789 && p.y > 360 && p.y < 469) {
     dbc:	e3540f5a 	cmp	r4, #360	; 0x168
     dc0:	daffffe0 	ble	d48 <HomeMenu+0x1a4>
     dc4:	e3540f75 	cmp	r4, #468	; 0x1d4
     dc8:	caffffde 	bgt	d48 <HomeMenu+0x1a4>
			break;
		}
	}
}
     dcc:	e28dd02c 	add	sp, sp, #44	; 0x2c
     dd0:	e8bd80f0 	pop	{r4, r5, r6, r7, pc}

00000dd4 <SidebarList>:
void BackButton(void) {
	Box(26, 75, 3, 52, BLUE);
	//TODO
}

void SidebarList(char *list[], int list_size) {
     dd4:	e92d47f0 	push	{r4, r5, r6, r7, r8, r9, r10, lr}
     dd8:	e24dd018 	sub	sp, sp, #24
     ddc:	e1a07000 	mov	r7, r0
     de0:	e1a04001 	mov	r4, r1
	int i;
	BorderedBox(542, 793, 6, 135+4*86, BLUE, FOREST_GREEN);
     de4:	e3a03004 	mov	r3, #4
     de8:	e58d3000 	str	r3, [sp]
     dec:	e3a0302e 	mov	r3, #46	; 0x2e
     df0:	e58d3004 	str	r3, [sp, #4]
     df4:	e300021e 	movw	r0, #542	; 0x21e
     df8:	e3001319 	movw	r1, #793	; 0x319
     dfc:	e3a02006 	mov	r2, #6
     e00:	e30031df 	movw	r3, #479	; 0x1df
     e04:	ebfffdcf 	bl	548 <BorderedBox>
	CenteredSentence(FONT2, 542, 793, 6, 25, WHITE, 0, "Your List", DONT_ERASE);
     e08:	e3a03019 	mov	r3, #25
     e0c:	e58d3000 	str	r3, [sp]
     e10:	e3a03001 	mov	r3, #1
     e14:	e58d3004 	str	r3, [sp, #4]
     e18:	e3a02000 	mov	r2, #0
     e1c:	e58d2008 	str	r2, [sp, #8]
     e20:	e3063dbc 	movw	r3, #28092	; 0x6dbc
     e24:	e3403001 	movt	r3, #1
     e28:	e58d300c 	str	r3, [sp, #12]
     e2c:	e58d2010 	str	r2, [sp, #16]
     e30:	e3a00002 	mov	r0, #2
     e34:	e300121e 	movw	r1, #542	; 0x21e
     e38:	e3002319 	movw	r2, #793	; 0x319
     e3c:	e3a03006 	mov	r3, #6
     e40:	eb000161 	bl	13cc <CenteredSentence>
	for(i = 0; i < list_size; i++) {
     e44:	e3540000 	cmp	r4, #0
     e48:	da000017 	ble	eac <SidebarList+0xd8>
void BackButton(void) {
	Box(26, 75, 3, 52, BLUE);
	//TODO
}

void SidebarList(char *list[], int list_size) {
     e4c:	e2477004 	sub	r7, r7, #4
     e50:	e3a09056 	mov	r9, #86	; 0x56
     e54:	e0090499 	mul	r9, r9, r4
     e58:	e2899038 	add	r9, r9, #56	; 0x38
     e5c:	e3a04038 	mov	r4, #56	; 0x38
	int i;
	BorderedBox(542, 793, 6, 135+4*86, BLUE, FOREST_GREEN);
	CenteredSentence(FONT2, 542, 793, 6, 25, WHITE, 0, "Your List", DONT_ERASE);
	for(i = 0; i < list_size; i++) {
		CenteredSentence(FONT1, 542, 793, 56+i*86, 135+i*86, WHITE, 0, list[i], DONT_ERASE);
     e60:	e3a06001 	mov	r6, #1
     e64:	e3a05000 	mov	r5, #0
     e68:	e300a21e 	movw	r10, #542	; 0x21e
     e6c:	e3008319 	movw	r8, #793	; 0x319
void BackButton(void) {
	Box(26, 75, 3, 52, BLUE);
	//TODO
}

void SidebarList(char *list[], int list_size) {
     e70:	e284304f 	add	r3, r4, #79	; 0x4f
	int i;
	BorderedBox(542, 793, 6, 135+4*86, BLUE, FOREST_GREEN);
	CenteredSentence(FONT2, 542, 793, 6, 25, WHITE, 0, "Your List", DONT_ERASE);
	for(i = 0; i < list_size; i++) {
		CenteredSentence(FONT1, 542, 793, 56+i*86, 135+i*86, WHITE, 0, list[i], DONT_ERASE);
     e74:	e58d3000 	str	r3, [sp]
     e78:	e58d6004 	str	r6, [sp, #4]
     e7c:	e58d5008 	str	r5, [sp, #8]
     e80:	e5b73004 	ldr	r3, [r7, #4]!
     e84:	e58d300c 	str	r3, [sp, #12]
     e88:	e58d5010 	str	r5, [sp, #16]
     e8c:	e1a00006 	mov	r0, r6
     e90:	e1a0100a 	mov	r1, r10
     e94:	e1a02008 	mov	r2, r8
     e98:	e1a03004 	mov	r3, r4
     e9c:	eb00014a 	bl	13cc <CenteredSentence>
     ea0:	e2844056 	add	r4, r4, #86	; 0x56

void SidebarList(char *list[], int list_size) {
	int i;
	BorderedBox(542, 793, 6, 135+4*86, BLUE, FOREST_GREEN);
	CenteredSentence(FONT2, 542, 793, 6, 25, WHITE, 0, "Your List", DONT_ERASE);
	for(i = 0; i < list_size; i++) {
     ea4:	e1540009 	cmp	r4, r9
     ea8:	1afffff0 	bne	e70 <SidebarList+0x9c>
		CenteredSentence(FONT1, 542, 793, 56+i*86, 135+i*86, WHITE, 0, list[i], DONT_ERASE);
	}
     eac:	e28dd018 	add	sp, sp, #24
     eb0:	e8bd87f0 	pop	{r4, r5, r6, r7, r8, r9, r10, pc}

00000eb4 <ItemSelectScreen>:
			// break;
		// }
	}
}

void ItemSelectScreen(void) {
     eb4:	e92d4ff0 	push	{r4, r5, r6, r7, r8, r9, r10, r11, lr}
     eb8:	e24dd094 	sub	sp, sp, #148	; 0x94
	ResetScreen();
     ebc:	ebfffe81 	bl	8c8 <ResetScreen>
	BackButton();
     ec0:	ebfffe8d 	bl	8fc <BackButton>
	
	/*temporary list from home depot
	********************************
	*/
	int list_size = 15; //will be dynamic data (max 15 categories)
	char *list[] = {"Appliances", "Bath", "Building Materials", "Decor & Blinds", "Electrical", "Floors & Area Rugs", "Furniture", 
     ec4:	e3064ce4 	movw	r4, #27876	; 0x6ce4
     ec8:	e3404001 	movt	r4, #1
     ecc:	e28dc054 	add	r12, sp, #84	; 0x54
     ed0:	e1a0e004 	mov	lr, r4
     ed4:	e8be000f 	ldm	lr!, {r0, r1, r2, r3}
     ed8:	e8ac000f 	stmia	r12!, {r0, r1, r2, r3}
     edc:	e8be000f 	ldm	lr!, {r0, r1, r2, r3}
     ee0:	e8ac000f 	stmia	r12!, {r0, r1, r2, r3}
     ee4:	e8be000f 	ldm	lr!, {r0, r1, r2, r3}
     ee8:	e8ac000f 	stmia	r12!, {r0, r1, r2, r3}
     eec:	e89e0007 	ldm	lr, {r0, r1, r2}
     ef0:	e88c0007 	stm	r12, {r0, r1, r2}
			"Hardware", "Kitchen", "Lighting & Fans", "Outdoors", "Paint", "Storage & Organization", "Tools", "Windows & Doors"};
	/******************************/
	
	SidebarList(list, list_size);
     ef4:	e28d0054 	add	r0, sp, #84	; 0x54
     ef8:	e3a0100f 	mov	r1, #15
     efc:	ebffffb4 	bl	dd4 <SidebarList>
	
	/*temporary items from home depot
	********************************
	*/
	int num_items = 10; //will be dynamic data (max 10)
	char *items[] = {"Appliances", "Bath", "Building Materials", "Decor & Blinds", "Electrical", "Floors & Area Rugs", "Furniture", 
     f00:	e28dc02c 	add	r12, sp, #44	; 0x2c
     f04:	e284e03c 	add	lr, r4, #60	; 0x3c
     f08:	e8be000f 	ldm	lr!, {r0, r1, r2, r3}
     f0c:	e8ac000f 	stmia	r12!, {r0, r1, r2, r3}
     f10:	e8be000f 	ldm	lr!, {r0, r1, r2, r3}
     f14:	e8ac000f 	stmia	r12!, {r0, r1, r2, r3}
     f18:	e89e0003 	ldm	lr, {r0, r1}
     f1c:	e88c0003 	stm	r12, {r0, r1}
			// break;
		// }
	}
}

void ItemSelectScreen(void) {
     f20:	e28da028 	add	r10, sp, #40	; 0x28
	
	/*temporary items from home depot
	********************************
	*/
	int num_items = 10; //will be dynamic data (max 10)
	char *items[] = {"Appliances", "Bath", "Building Materials", "Decor & Blinds", "Electrical", "Floors & Area Rugs", "Furniture", 
     f24:	e3a04038 	mov	r4, #56	; 0x38
	/******************************/
	
	int i;
	//first column
	for(i = 0; i < num_items && i < 5; i++) {
		BorderedBox(26, 277, 56+i*86, 135+i*86, BLUE, FOREST_GREEN);
     f28:	e3a0b004 	mov	r11, #4
     f2c:	e3a0902e 	mov	r9, #46	; 0x2e
     f30:	e3a0801a 	mov	r8, #26
     f34:	e3007115 	movw	r7, #277	; 0x115
		//Fill(27, 56+i*86+1, FOREST_GREEN, BLUE);
		CenteredSentence(FONT2, 26, 277, 56+i*86, 135+i*86, WHITE, 0, items[i], DONT_ERASE);
     f38:	e3a06000 	mov	r6, #0
			// break;
		// }
	}
}

void ItemSelectScreen(void) {
     f3c:	e284504f 	add	r5, r4, #79	; 0x4f
	/******************************/
	
	int i;
	//first column
	for(i = 0; i < num_items && i < 5; i++) {
		BorderedBox(26, 277, 56+i*86, 135+i*86, BLUE, FOREST_GREEN);
     f40:	e58db000 	str	r11, [sp]
     f44:	e58d9004 	str	r9, [sp, #4]
     f48:	e1a00008 	mov	r0, r8
     f4c:	e1a01007 	mov	r1, r7
     f50:	e1a02004 	mov	r2, r4
     f54:	e1a03005 	mov	r3, r5
     f58:	ebfffd7a 	bl	548 <BorderedBox>
		//Fill(27, 56+i*86+1, FOREST_GREEN, BLUE);
		CenteredSentence(FONT2, 26, 277, 56+i*86, 135+i*86, WHITE, 0, items[i], DONT_ERASE);
     f5c:	e58d5000 	str	r5, [sp]
     f60:	e3a03001 	mov	r3, #1
     f64:	e58d3004 	str	r3, [sp, #4]
     f68:	e58d6008 	str	r6, [sp, #8]
     f6c:	e5ba3004 	ldr	r3, [r10, #4]!
     f70:	e58d300c 	str	r3, [sp, #12]
     f74:	e58d6010 	str	r6, [sp, #16]
     f78:	e3a00002 	mov	r0, #2
     f7c:	e1a01008 	mov	r1, r8
     f80:	e1a02007 	mov	r2, r7
     f84:	e1a03004 	mov	r3, r4
     f88:	eb00010f 	bl	13cc <CenteredSentence>
     f8c:	e2844056 	add	r4, r4, #86	; 0x56
			"Hardware", "Kitchen", "Lighting & Fans"};
	/******************************/
	
	int i;
	//first column
	for(i = 0; i < num_items && i < 5; i++) {
     f90:	e30031e6 	movw	r3, #486	; 0x1e6
     f94:	e1540003 	cmp	r4, r3
     f98:	1affffe7 	bne	f3c <ItemSelectScreen+0x88>
     f9c:	e28da03c 	add	r10, sp, #60	; 0x3c
     fa0:	e3a04038 	mov	r4, #56	; 0x38
		CenteredSentence(FONT2, 26, 277, 56+i*86, 135+i*86, WHITE, 0, items[i], DONT_ERASE);
	}
	
	//second column
	for(i = 0; i < (num_items - 5) && i < 5; i++) {
		BorderedBox(284, 535, 56+i*86, 135+i*86, BLUE, FOREST_GREEN);
     fa4:	e3a0b004 	mov	r11, #4
     fa8:	e3a0902e 	mov	r9, #46	; 0x2e
     fac:	e3a08f47 	mov	r8, #284	; 0x11c
     fb0:	e3007217 	movw	r7, #535	; 0x217
		//Fill(285, 56+i*86+1, FOREST_GREEN, BLUE);
		CenteredSentence(FONT2, 284, 535, 56+i*86, 135+i*86, WHITE, 0, items[i+5], DONT_ERASE);
     fb4:	e3a06000 	mov	r6, #0
			// break;
		// }
	}
}

void ItemSelectScreen(void) {
     fb8:	e284504f 	add	r5, r4, #79	; 0x4f
		CenteredSentence(FONT2, 26, 277, 56+i*86, 135+i*86, WHITE, 0, items[i], DONT_ERASE);
	}
	
	//second column
	for(i = 0; i < (num_items - 5) && i < 5; i++) {
		BorderedBox(284, 535, 56+i*86, 135+i*86, BLUE, FOREST_GREEN);
     fbc:	e58db000 	str	r11, [sp]
     fc0:	e58d9004 	str	r9, [sp, #4]
     fc4:	e1a00008 	mov	r0, r8
     fc8:	e1a01007 	mov	r1, r7
     fcc:	e1a02004 	mov	r2, r4
     fd0:	e1a03005 	mov	r3, r5
     fd4:	ebfffd5b 	bl	548 <BorderedBox>
		//Fill(285, 56+i*86+1, FOREST_GREEN, BLUE);
		CenteredSentence(FONT2, 284, 535, 56+i*86, 135+i*86, WHITE, 0, items[i+5], DONT_ERASE);
     fd8:	e58d5000 	str	r5, [sp]
     fdc:	e3a03001 	mov	r3, #1
     fe0:	e58d3004 	str	r3, [sp, #4]
     fe4:	e58d6008 	str	r6, [sp, #8]
     fe8:	e5ba3004 	ldr	r3, [r10, #4]!
     fec:	e58d300c 	str	r3, [sp, #12]
     ff0:	e58d6010 	str	r6, [sp, #16]
     ff4:	e3a00002 	mov	r0, #2
     ff8:	e1a01008 	mov	r1, r8
     ffc:	e1a02007 	mov	r2, r7
    1000:	e1a03004 	mov	r3, r4
    1004:	eb0000f0 	bl	13cc <CenteredSentence>
    1008:	e2844056 	add	r4, r4, #86	; 0x56
		//Fill(27, 56+i*86+1, FOREST_GREEN, BLUE);
		CenteredSentence(FONT2, 26, 277, 56+i*86, 135+i*86, WHITE, 0, items[i], DONT_ERASE);
	}
	
	//second column
	for(i = 0; i < (num_items - 5) && i < 5; i++) {
    100c:	e30031e6 	movw	r3, #486	; 0x1e6
    1010:	e1540003 	cmp	r4, r3
    1014:	1affffe7 	bne	fb8 <ItemSelectScreen+0x104>
	
	//Touchscreen
	Point p;
	while(1) {
		p = GetPress();
		printf("Press: x = %d, y = %d\n", p.x, p.y);
    1018:	e3066d5c 	movw	r6, #27996	; 0x6d5c
    101c:	e3406001 	movt	r6, #1
		GetRelease();
		if(p.x > 30 && p.x < 789 && p.y > 10 && p.y < 109) {
    1020:	e30072f5 	movw	r7, #757	; 0x2f5
	}
	
	//Touchscreen
	Point p;
	while(1) {
		p = GetPress();
    1024:	e28d0024 	add	r0, sp, #36	; 0x24
    1028:	eb000188 	bl	1650 <GetPress>
    102c:	e59d5024 	ldr	r5, [sp, #36]	; 0x24
    1030:	e59d4028 	ldr	r4, [sp, #40]	; 0x28
		printf("Press: x = %d, y = %d\n", p.x, p.y);
    1034:	e1a00006 	mov	r0, r6
    1038:	e1a01005 	mov	r1, r5
    103c:	e1a02004 	mov	r2, r4
    1040:	eb0001bd 	bl	173c <printf>
		GetRelease();
    1044:	e28d0018 	add	r0, sp, #24
    1048:	eb000167 	bl	15ec <GetRelease>
		if(p.x > 30 && p.x < 789 && p.y > 10 && p.y < 109) {
    104c:	e245501f 	sub	r5, r5, #31
    1050:	e1550007 	cmp	r5, r7
    1054:	8afffff2 	bhi	1024 <ItemSelectScreen+0x170>
    1058:	e354000a 	cmp	r4, #10
    105c:	da000003 	ble	1070 <ItemSelectScreen+0x1bc>
    1060:	e354006c 	cmp	r4, #108	; 0x6c
    1064:	ca000001 	bgt	1070 <ItemSelectScreen+0x1bc>
			SearchScreen();
    1068:	ebfffe2e 	bl	928 <SearchScreen>
			break;
    106c:	ea00000d 	b	10a8 <ItemSelectScreen+0x1f4>
		} else if(p.x > 30 && p.x < 789 && p.y > 120 && p.y < 229) {
    1070:	e3540078 	cmp	r4, #120	; 0x78
    1074:	da000003 	ble	1088 <ItemSelectScreen+0x1d4>
    1078:	e35400e4 	cmp	r4, #228	; 0xe4
    107c:	ca000001 	bgt	1088 <ItemSelectScreen+0x1d4>
			SearchScreen();
    1080:	ebfffe28 	bl	928 <SearchScreen>
			break;
    1084:	ea000007 	b	10a8 <ItemSelectScreen+0x1f4>
		} else if(p.x > 30 && p.x < 789 && p.y > 240 && p.y < 349) {
    1088:	e35400f0 	cmp	r4, #240	; 0xf0
    108c:	da000001 	ble	1098 <ItemSelectScreen+0x1e4>
    1090:	e3540f57 	cmp	r4, #348	; 0x15c
    1094:	da000003 	ble	10a8 <ItemSelectScreen+0x1f4>
			break;
		} else if(p.x > 30 && p.x < 789 && p.y > 360 && p.y < 469) {
    1098:	e3540f5a 	cmp	r4, #360	; 0x168
    109c:	daffffe0 	ble	1024 <ItemSelectScreen+0x170>
    10a0:	e3540f75 	cmp	r4, #468	; 0x1d4
    10a4:	caffffde 	bgt	1024 <ItemSelectScreen+0x170>
			break;
		}
	}
}
    10a8:	e28dd094 	add	sp, sp, #148	; 0x94
    10ac:	e8bd8ff0 	pop	{r4, r5, r6, r7, r8, r9, r10, r11, pc}

000010b0 <Font1>:
extern const unsigned char Font5x7[][7] ; //5 pixels wide, 7 pixels high
extern const unsigned short int Font10x14[][14] ; //10 pixels wide, 14 pixels high
extern const unsigned char Font16x27[];

void Font1(int x, int y, int fontcolour, int backgroundcolour, int c, int Erase)
{
    10b0:	e92d4ff0 	push	{r4, r5, r6, r7, r8, r9, r10, r11, lr}
    10b4:	e24dd014 	sub	sp, sp, #20
    10b8:	e1a0b000 	mov	r11, r0
    10bc:	e58d300c 	str	r3, [sp, #12]
    10c0:	e59da03c 	ldr	r10, [sp, #60]	; 0x3c
	register char theColour = fontcolour  ;
	register int BitMask, theC = c ;

// if x,y coord off edge of screen don't bother

    if(((short)(x) > (short)(XRES-1)) || ((short)(y) > (short)(YRES-1)))
    10c4:	e6bf3070 	sxth	r3, r0
    10c8:	e3530e32 	cmp	r3, #800	; 0x320
    10cc:	aa00002e 	bge	118c <Font1+0xdc>
    10d0:	e6bf3071 	sxth	r3, r1
    10d4:	e3530e1e 	cmp	r3, #480	; 0x1e0
    10d8:	aa00002b 	bge	118c <Font1+0xdc>
        return ;


// if printable character subtract hex 20
	if(((short)(theC) >= (short)(' ')) && ((short)(theC) <= (short)('~'))) {
    10dc:	e59d0038 	ldr	r0, [sp, #56]	; 0x38
    10e0:	e2403020 	sub	r3, r0, #32
    10e4:	e6ff3073 	uxth	r3, r3
    10e8:	e353005e 	cmp	r3, #94	; 0x5e
    10ec:	8a000026 	bhi	118c <Font1+0xdc>
    10f0:	e1a08001 	mov	r8, r1
		theC = theC - 0x20 ;
    10f4:	e2403020 	sub	r3, r0, #32

extern const unsigned char Font5x7[][7] ; //5 pixels wide, 7 pixels high
extern const unsigned short int Font10x14[][14] ; //10 pixels wide, 14 pixels high
extern const unsigned char Font16x27[];

void Font1(int x, int y, int fontcolour, int backgroundcolour, int c, int Erase)
    10f8:	e0633183 	rsb	r3, r3, r3, lsl #3
    10fc:	e0611003 	rsb	r1, r1, r3
    1100:	e3063a48 	movw	r3, #27208	; 0x6a48
    1104:	e3403001 	movt	r3, #1
    1108:	e0813003 	add	r3, r1, r3
    110c:	e58d3004 	str	r3, [sp, #4]


// if printable character subtract hex 20
	if(((short)(theC) >= (short)(' ')) && ((short)(theC) <= (short)('~'))) {
		theC = theC - 0x20 ;
		for(row = 0; (char)(row) < (char)(7); row ++)	{
    1110:	e3a09000 	mov	r9, #0

			for(column = 0; (char)(column) < (char)(5); column ++)	{

// if a pixel in the character display it
				if((pixels & BitMask))
					WriteAPixel(theX+column, theY+row, theColour) ;
    1114:	e6ef4072 	uxtb	r4, r2
    1118:	e58db008 	str	r11, [sp, #8]
    111c:	e1a0b004 	mov	r11, r4
	if(((short)(theC) >= (short)(' ')) && ((short)(theC) <= (short)('~'))) {
		theC = theC - 0x20 ;
		for(row = 0; (char)(row) < (char)(7); row ++)	{

// get the bit pattern for row 0 of the character from the software font
			pixels = Font5x7[theC][row] ;
    1120:	e59d3004 	ldr	r3, [sp, #4]
    1124:	e7d37008 	ldrb	r7, [r3, r8]
    1128:	e59d6008 	ldr	r6, [sp, #8]
			BitMask = 16 ;
    112c:	e3a05010 	mov	r5, #16

			for(column = 0; (char)(column) < (char)(5); column ++)	{
    1130:	e3a04000 	mov	r4, #0

// if a pixel in the character display it
				if((pixels & BitMask))
    1134:	e1150007 	tst	r5, r7
    1138:	0a000004 	beq	1150 <Font1+0xa0>
					WriteAPixel(theX+column, theY+row, theColour) ;
    113c:	e1a00006 	mov	r0, r6
    1140:	e1a01008 	mov	r1, r8
    1144:	e1a0200b 	mov	r2, r11
    1148:	ebfffc4e 	bl	288 <WriteAPixel>
    114c:	ea000005 	b	1168 <Font1+0xb8>

				else {
					if(Erase == TRUE)
    1150:	e35a0001 	cmp	r10, #1
    1154:	1a000003 	bne	1168 <Font1+0xb8>

// if pixel is part of background (not part of character)
// erase the background to value of variable BackGroundColour

						WriteAPixel(theX+column, theY+row, backgroundcolour) ;
    1158:	e1a00006 	mov	r0, r6
    115c:	e1a01008 	mov	r1, r8
    1160:	e59d200c 	ldr	r2, [sp, #12]
    1164:	ebfffc47 	bl	288 <WriteAPixel>
				}
				BitMask = BitMask >> 1 ;
    1168:	e1a050c5 	asr	r5, r5, #1

// get the bit pattern for row 0 of the character from the software font
			pixels = Font5x7[theC][row] ;
			BitMask = 16 ;

			for(column = 0; (char)(column) < (char)(5); column ++)	{
    116c:	e2844001 	add	r4, r4, #1
    1170:	e2866001 	add	r6, r6, #1
    1174:	e3540005 	cmp	r4, #5
    1178:	1affffed 	bne	1134 <Font1+0x84>


// if printable character subtract hex 20
	if(((short)(theC) >= (short)(' ')) && ((short)(theC) <= (short)('~'))) {
		theC = theC - 0x20 ;
		for(row = 0; (char)(row) < (char)(7); row ++)	{
    117c:	e2899001 	add	r9, r9, #1
    1180:	e2888001 	add	r8, r8, #1
    1184:	e3590007 	cmp	r9, #7
    1188:	1affffe4 	bne	1120 <Font1+0x70>
				}
				BitMask = BitMask >> 1 ;
			}
		}
	}
}
    118c:	e28dd014 	add	sp, sp, #20
    1190:	e8bd8ff0 	pop	{r4, r5, r6, r7, r8, r9, r10, r11, pc}

00001194 <Font2>:
** OutGraphicsCharFont2(100,100, RED, 'A', TRUE, FALSE, 1, 1) ;	// display upper case 'A' in RED at coords 100,100, erase background
** no scroll, scale x,y= 1,1
**
******************************************************************************************************************************/
void Font2(int x, int y, int colour, int backgroundcolour, int c, int Erase)
{
    1194:	e92d4ff0 	push	{r4, r5, r6, r7, r8, r9, r10, r11, lr}
    1198:	e24dd014 	sub	sp, sp, #20
    119c:	e58d0004 	str	r0, [sp, #4]
    11a0:	e58d300c 	str	r3, [sp, #12]
    11a4:	e59d803c 	ldr	r8, [sp, #60]	; 0x3c
	register int 	BitMask,
					theCharacter = c,
					theRow, theColumn;


    if(((short)(x) > (short)(XRES-1)) || ((short)(y) > (short)(YRES-1)))  // if start off edge of screen don't bother
    11a8:	e6bf3070 	sxth	r3, r0
    11ac:	e3530e32 	cmp	r3, #800	; 0x320
    11b0:	aa00002b 	bge	1264 <Font2+0xd0>
    11b4:	e6bf3071 	sxth	r3, r1
    11b8:	e3530e1e 	cmp	r3, #480	; 0x1e0
    11bc:	aa000028 	bge	1264 <Font2+0xd0>
        return ;

	if(((short)(theCharacter) >= (short)(' ')) && ((short)(theCharacter) <= (short)('~'))) {			// if printable character
    11c0:	e59d0038 	ldr	r0, [sp, #56]	; 0x38
    11c4:	e2403020 	sub	r3, r0, #32
    11c8:	e6ff3073 	uxth	r3, r3
    11cc:	e353005e 	cmp	r3, #94	; 0x5e
    11d0:	8a000023 	bhi	1264 <Font2+0xd0>
    11d4:	e1a0a001 	mov	r10, r1
		theCharacter -= 0x20 ;																			// subtract hex 20 to get index of first printable character (the space character)
    11d8:	e2403020 	sub	r3, r0, #32
** This function draws a single ASCII character at the coord specified using the colour specified
** OutGraphicsCharFont2(100,100, RED, 'A', TRUE, FALSE, 1, 1) ;	// display upper case 'A' in RED at coords 100,100, erase background
** no scroll, scale x,y= 1,1
**
******************************************************************************************************************************/
void Font2(int x, int y, int colour, int backgroundcolour, int c, int Erase)
    11dc:	e0631183 	rsb	r1, r3, r3, lsl #3
    11e0:	e3053fe4 	movw	r3, #24548	; 0x5fe4
    11e4:	e3403001 	movt	r3, #1
    11e8:	e0833101 	add	r3, r3, r1, lsl #2
    11ec:	e58d3008 	str	r3, [sp, #8]
    11f0:	e3a09000 	mov	r9, #0
		for(row = 0; row < theRow ; row ++)	{
			pixels = Font10x14[theCharacter][row] ;		     								// get the pixels for row 0 of the character to be displayed
			BitMask = 512 ;							   											// set of hex 200 i.e. bit 7-0 = 0010 0000 0000
			for(column = 0; column < theColumn;   )  	{
				if((pixels & BitMask))														// if valid pixel, then write it
					WriteAPixel(theX+column, theY+row, theColour) ;
    11f4:	e6efb072 	uxtb	r11, r2
		theCharacter -= 0x20 ;																			// subtract hex 20 to get index of first printable character (the space character)
		theRow = FONT2_YPIXELS;
		theColumn = FONT2_XPIXELS;

		for(row = 0; row < theRow ; row ++)	{
			pixels = Font10x14[theCharacter][row] ;		     								// get the pixels for row 0 of the character to be displayed
    11f8:	e59d1008 	ldr	r1, [sp, #8]
    11fc:	e19170b9 	ldrh	r7, [r1, r9]
    1200:	e59d6004 	ldr	r6, [sp, #4]
			BitMask = 512 ;							   											// set of hex 200 i.e. bit 7-0 = 0010 0000 0000
    1204:	e3a05c02 	mov	r5, #512	; 0x200
			for(column = 0; column < theColumn;   )  	{
    1208:	e3a04000 	mov	r4, #0
				if((pixels & BitMask))														// if valid pixel, then write it
    120c:	e1150007 	tst	r5, r7
    1210:	0a000004 	beq	1228 <Font2+0x94>
					WriteAPixel(theX+column, theY+row, theColour) ;
    1214:	e1a00006 	mov	r0, r6
    1218:	e1a0100a 	mov	r1, r10
    121c:	e1a0200b 	mov	r2, r11
    1220:	ebfffc18 	bl	288 <WriteAPixel>
    1224:	ea000005 	b	1240 <Font2+0xac>
				else {																		// if not a valid pixel, do we erase or leave it along (no erase)
					if(Erase == TRUE)
    1228:	e3580001 	cmp	r8, #1
    122c:	1a000003 	bne	1240 <Font2+0xac>
						WriteAPixel(theX+column, theY+row, backgroundcolour) ;
    1230:	e1a00006 	mov	r0, r6
    1234:	e1a0100a 	mov	r1, r10
    1238:	e59d200c 	ldr	r2, [sp, #12]
    123c:	ebfffc11 	bl	288 <WriteAPixel>
					// else leave it alone
				}
					column ++ ;
    1240:	e2844001 	add	r4, r4, #1
				BitMask = BitMask >> 1 ;
    1244:	e1a050c5 	asr	r5, r5, #1
    1248:	e2866001 	add	r6, r6, #1
		theColumn = FONT2_XPIXELS;

		for(row = 0; row < theRow ; row ++)	{
			pixels = Font10x14[theCharacter][row] ;		     								// get the pixels for row 0 of the character to be displayed
			BitMask = 512 ;							   											// set of hex 200 i.e. bit 7-0 = 0010 0000 0000
			for(column = 0; column < theColumn;   )  	{
    124c:	e354000a 	cmp	r4, #10
    1250:	1affffed 	bne	120c <Font2+0x78>
    1254:	e2899002 	add	r9, r9, #2
    1258:	e28aa001 	add	r10, r10, #1
	if(((short)(theCharacter) >= (short)(' ')) && ((short)(theCharacter) <= (short)('~'))) {			// if printable character
		theCharacter -= 0x20 ;																			// subtract hex 20 to get index of first printable character (the space character)
		theRow = FONT2_YPIXELS;
		theColumn = FONT2_XPIXELS;

		for(row = 0; row < theRow ; row ++)	{
    125c:	e359001c 	cmp	r9, #28
    1260:	1affffe4 	bne	11f8 <Font2+0x64>
					column ++ ;
				BitMask = BitMask >> 1 ;
			}
		}
	}
}
    1264:	e28dd014 	add	sp, sp, #20
    1268:	e8bd8ff0 	pop	{r4, r5, r6, r7, r8, r9, r10, r11, pc}

0000126c <Font3>:

void Font3(int x, int y, int colour, int c)
{
    126c:	e92d4ff0 	push	{r4, r5, r6, r7, r8, r9, r10, r11, lr}
    1270:	e24dd00c 	sub	sp, sp, #12
    1274:	e1a09000 	mov	r9, r0
    1278:	e1a0a002 	mov	r10, r2
    127c:	e3048bd8 	movw	r8, #19416	; 0x4bd8
    1280:	e3408001 	movt	r8, #1
    1284:	e1a07001 	mov	r7, r1
	int height, width, bitmask;
	unsigned char pixels;
	for(height = 0; height < 27; height++) {
		
		bitmask = 128;
    1288:	e3a0b080 	mov	r11, #128	; 0x80
			}
		}
	}
}

void Font3(int x, int y, int colour, int c)
    128c:	e58d8004 	str	r8, [sp, #4]
	int height, width, bitmask;
	unsigned char pixels;
	for(height = 0; height < 27; height++) {
		
		bitmask = 128;
		pixels = Font16x27[height*2];
    1290:	e5d86000 	ldrb	r6, [r8]
{
	int height, width, bitmask;
	unsigned char pixels;
	for(height = 0; height < 27; height++) {
		
		bitmask = 128;
    1294:	e1a0500b 	mov	r5, r11
		pixels = Font16x27[height*2];
		for(width = 0; width < 8; width++) {
    1298:	e3a04000 	mov	r4, #0
			if(pixels & bitmask)
    129c:	e1150006 	tst	r5, r6
    12a0:	0a000003 	beq	12b4 <Font3+0x48>
				WriteAPixel(x+width, y+height, colour);
    12a4:	e0840009 	add	r0, r4, r9
    12a8:	e1a01007 	mov	r1, r7
    12ac:	e1a0200a 	mov	r2, r10
    12b0:	ebfffbf4 	bl	288 <WriteAPixel>
			bitmask = bitmask >> 1;
    12b4:	e1a050c5 	asr	r5, r5, #1
	unsigned char pixels;
	for(height = 0; height < 27; height++) {
		
		bitmask = 128;
		pixels = Font16x27[height*2];
		for(width = 0; width < 8; width++) {
    12b8:	e2844001 	add	r4, r4, #1
    12bc:	e3540008 	cmp	r4, #8
    12c0:	1afffff5 	bne	129c <Font3+0x30>
				WriteAPixel(x+width, y+height, colour);
			bitmask = bitmask >> 1;
		}
		
		bitmask = 128;
		pixels = Font16x27[height*2+1];
    12c4:	e59d3004 	ldr	r3, [sp, #4]
    12c8:	e5d36001 	ldrb	r6, [r3, #1]
			if(pixels & bitmask)
				WriteAPixel(x+width, y+height, colour);
			bitmask = bitmask >> 1;
		}
		
		bitmask = 128;
    12cc:	e1a0500b 	mov	r5, r11
		pixels = Font16x27[height*2+1];
		for(width = 8; width < 16; width++) {
			if(pixels & bitmask)
    12d0:	e1150006 	tst	r5, r6
    12d4:	0a000003 	beq	12e8 <Font3+0x7c>
				WriteAPixel(x+width, y+height, colour);
    12d8:	e0840009 	add	r0, r4, r9
    12dc:	e1a01007 	mov	r1, r7
    12e0:	e1a0200a 	mov	r2, r10
    12e4:	ebfffbe7 	bl	288 <WriteAPixel>
			bitmask = bitmask >> 1;
    12e8:	e1a050c5 	asr	r5, r5, #1
			bitmask = bitmask >> 1;
		}
		
		bitmask = 128;
		pixels = Font16x27[height*2+1];
		for(width = 8; width < 16; width++) {
    12ec:	e2844001 	add	r4, r4, #1
    12f0:	e3540010 	cmp	r4, #16
    12f4:	1afffff5 	bne	12d0 <Font3+0x64>
    12f8:	e2888002 	add	r8, r8, #2
    12fc:	e2877001 	add	r7, r7, #1

void Font3(int x, int y, int colour, int c)
{
	int height, width, bitmask;
	unsigned char pixels;
	for(height = 0; height < 27; height++) {
    1300:	e59f300c 	ldr	r3, [pc, #12]	; 1314 <Font3+0xa8>
    1304:	e1580003 	cmp	r8, r3
    1308:	1affffdf 	bne	128c <Font3+0x20>
			if(pixels & bitmask)
				WriteAPixel(x+width, y+height, colour);
			bitmask = bitmask >> 1;
		}
	}
}
    130c:	e28dd00c 	add	sp, sp, #12
    1310:	e8bd8ff0 	pop	{r4, r5, r6, r7, r8, r9, r10, r11, pc}
    1314:	00014c0e 	.word	0x00014c0e

00001318 <Sentence>:

/*********************************************************************************************
*********************************************************************************************/

void Sentence(int font, int x, int y, int fontcolour, int backgroundcolour, char sentence[], int Erase)
{
    1318:	e92d47f0 	push	{r4, r5, r6, r7, r8, r9, r10, lr}
    131c:	e24dd008 	sub	sp, sp, #8
    1320:	e1a07002 	mov	r7, r2
    1324:	e1a08003 	mov	r8, r3
    1328:	e59da028 	ldr	r10, [sp, #40]	; 0x28
    132c:	e59d602c 	ldr	r6, [sp, #44]	; 0x2c
    1330:	e59d9030 	ldr	r9, [sp, #48]	; 0x30
	int i;
	if(font==1) { //font1
    1334:	e3500001 	cmp	r0, #1
    1338:	11a05001 	movne	r5, r1
    133c:	13a04000 	movne	r4, #0
    1340:	1a00001b 	bne	13b4 <Sentence+0x9c>
    1344:	e1a05001 	mov	r5, r1
    1348:	e3a04000 	mov	r4, #0
    134c:	ea000009 	b	1378 <Sentence+0x60>
		for(i = 0; i < strlen(sentence); i++) {
			Font1(x+5*i, y, fontcolour, backgroundcolour, (int) sentence[i], Erase);
    1350:	e7d63004 	ldrb	r3, [r6, r4]
    1354:	e58d3000 	str	r3, [sp]
    1358:	e58d9004 	str	r9, [sp, #4]
    135c:	e1a00005 	mov	r0, r5
    1360:	e1a01007 	mov	r1, r7
    1364:	e1a02008 	mov	r2, r8
    1368:	e1a0300a 	mov	r3, r10
    136c:	ebffff4f 	bl	10b0 <Font1>

void Sentence(int font, int x, int y, int fontcolour, int backgroundcolour, char sentence[], int Erase)
{
	int i;
	if(font==1) { //font1
		for(i = 0; i < strlen(sentence); i++) {
    1370:	e2844001 	add	r4, r4, #1
    1374:	e2855005 	add	r5, r5, #5
    1378:	e1a00006 	mov	r0, r6
    137c:	eb00012c 	bl	1834 <strlen>
    1380:	e1540000 	cmp	r4, r0
    1384:	3afffff1 	bcc	1350 <Sentence+0x38>
    1388:	ea00000d 	b	13c4 <Sentence+0xac>
			Font1(x+5*i, y, fontcolour, backgroundcolour, (int) sentence[i], Erase);
		}
	}
	else { //font2
		for(i = 0; i < strlen(sentence); i++) {
			Font2(x+10*i, y, fontcolour, backgroundcolour, (int) sentence[i], Erase);
    138c:	e7d60004 	ldrb	r0, [r6, r4]
    1390:	e58d0000 	str	r0, [sp]
    1394:	e58d9004 	str	r9, [sp, #4]
    1398:	e1a00005 	mov	r0, r5
    139c:	e1a01007 	mov	r1, r7
    13a0:	e1a02008 	mov	r2, r8
    13a4:	e1a0300a 	mov	r3, r10
    13a8:	ebffff79 	bl	1194 <Font2>
		for(i = 0; i < strlen(sentence); i++) {
			Font1(x+5*i, y, fontcolour, backgroundcolour, (int) sentence[i], Erase);
		}
	}
	else { //font2
		for(i = 0; i < strlen(sentence); i++) {
    13ac:	e2844001 	add	r4, r4, #1
    13b0:	e285500a 	add	r5, r5, #10
    13b4:	e1a00006 	mov	r0, r6
    13b8:	eb00011d 	bl	1834 <strlen>
    13bc:	e1540000 	cmp	r4, r0
    13c0:	3afffff1 	bcc	138c <Sentence+0x74>
			Font2(x+10*i, y, fontcolour, backgroundcolour, (int) sentence[i], Erase);
		}
	}
}
    13c4:	e28dd008 	add	sp, sp, #8
    13c8:	e8bd87f0 	pop	{r4, r5, r6, r7, r8, r9, r10, pc}

000013cc <CenteredSentence>:

void CenteredSentence(int font, int leftx, int rightx, int topy, int boty, int fontcolour, int backgroundcolour, char sentence[], int Erase)
{
    13cc:	e92d47f0 	push	{r4, r5, r6, r7, r8, r9, r10, lr}
    13d0:	e24dd008 	sub	sp, sp, #8
    13d4:	e1a07001 	mov	r7, r1
    13d8:	e1a05002 	mov	r5, r2
    13dc:	e1a04003 	mov	r4, r3
    13e0:	e59d902c 	ldr	r9, [sp, #44]	; 0x2c
    13e4:	e59da030 	ldr	r10, [sp, #48]	; 0x30
    13e8:	e59d6034 	ldr	r6, [sp, #52]	; 0x34
    13ec:	e59d8038 	ldr	r8, [sp, #56]	; 0x38
	int midx = (leftx+rightx+1)/2;
	int midy = (topy+boty+1)/2;
	int startingx = midx-(11*strlen(sentence)-1)/2;
    13f0:	e1a00006 	mov	r0, r6
    13f4:	eb00010e 	bl	1834 <strlen>
	}
}

void CenteredSentence(int font, int leftx, int rightx, int topy, int boty, int fontcolour, int backgroundcolour, char sentence[], int Erase)
{
	int midx = (leftx+rightx+1)/2;
    13f8:	e0875005 	add	r5, r7, r5
    13fc:	e2855001 	add	r5, r5, #1
    1400:	e0855fa5 	add	r5, r5, r5, lsr #31
	int midy = (topy+boty+1)/2;
	int startingx = midx-(11*strlen(sentence)-1)/2;
    1404:	e0803100 	add	r3, r0, r0, lsl #2
    1408:	e0800083 	add	r0, r0, r3, lsl #1
    140c:	e2403001 	sub	r3, r0, #1
    1410:	e1a030a3 	lsr	r3, r3, #1
    1414:	e06350c5 	rsb	r5, r3, r5, asr #1
}

void CenteredSentence(int font, int leftx, int rightx, int topy, int boty, int fontcolour, int backgroundcolour, char sentence[], int Erase)
{
	int midx = (leftx+rightx+1)/2;
	int midy = (topy+boty+1)/2;
    1418:	e59d7028 	ldr	r7, [sp, #40]	; 0x28
    141c:	e0847007 	add	r7, r4, r7
    1420:	e2877001 	add	r7, r7, #1
    1424:	e0877fa7 	add	r7, r7, r7, lsr #31
    1428:	e1a070c7 	asr	r7, r7, #1
	int startingx = midx-(11*strlen(sentence)-1)/2;
	int startingy = midy-7;
    142c:	e2477007 	sub	r7, r7, #7
		// for(i = 0; i < strlen(sentence); i++) {
			// Font1(x+5*i, y, fontcolour, backgroundcolour, (int) sentence[i], Erase);
		// }
	// }
	// else { //font2
		for(i = 0; i < strlen(sentence); i++) {
    1430:	e3a04000 	mov	r4, #0
    1434:	ea000009 	b	1460 <CenteredSentence+0x94>
			Font2(startingx+11*i, startingy, fontcolour, backgroundcolour, (int) sentence[i], Erase);
    1438:	e7d60004 	ldrb	r0, [r6, r4]
    143c:	e58d0000 	str	r0, [sp]
    1440:	e58d8004 	str	r8, [sp, #4]
    1444:	e1a00005 	mov	r0, r5
    1448:	e1a01007 	mov	r1, r7
    144c:	e1a02009 	mov	r2, r9
    1450:	e1a0300a 	mov	r3, r10
    1454:	ebffff4e 	bl	1194 <Font2>
		// for(i = 0; i < strlen(sentence); i++) {
			// Font1(x+5*i, y, fontcolour, backgroundcolour, (int) sentence[i], Erase);
		// }
	// }
	// else { //font2
		for(i = 0; i < strlen(sentence); i++) {
    1458:	e2844001 	add	r4, r4, #1
    145c:	e285500b 	add	r5, r5, #11
    1460:	e1a00006 	mov	r0, r6
    1464:	eb0000f2 	bl	1834 <strlen>
    1468:	e1540000 	cmp	r4, r0
    146c:	3afffff1 	bcc	1438 <CenteredSentence+0x6c>
			Font2(startingx+11*i, startingy, fontcolour, backgroundcolour, (int) sentence[i], Erase);
		}
	// }
    1470:	e28dd008 	add	sp, sp, #8
    1474:	e8bd87f0 	pop	{r4, r5, r6, r7, r8, r9, r10, pc}

00001478 <Init_Touch>:
*****************************************************************************/
void Init_Touch(void) {
	// Program serial port to communicate with touchscreen
	// send touchscreen controller an "enable touch" command
 // set bit 7 of Line Control Register to 1, to gain access to the baud rate registers
    TS_LineControlReg = 0x80;
    1478:	e3a03000 	mov	r3, #0
    147c:	e34f3f21 	movt	r3, #65313	; 0xff21
    1480:	e3e0207f 	mvn	r2, #127	; 0x7f
    1484:	e5c32236 	strb	r2, [r3, #566]	; 0x236
 // set Divisor latch (LSB and MSB) with correct value for required baud rate (9600)
 // 50x10^6/(16*9600) = 325.5 = 325 rounded down
    TS_DivisorLatchLSB = 0x45;
    1488:	e3a02045 	mov	r2, #69	; 0x45
    148c:	e5c32230 	strb	r2, [r3, #560]	; 0x230
    TS_DivisorLatchMSB = 0x1;
    1490:	e3a02001 	mov	r2, #1
    1494:	e5c32232 	strb	r2, [r3, #562]	; 0x232
 // set bit 7 of Line control register back to 0 and
 // program other bits in that reg for 8 bit data, 1 stop bit, no parity etc
    TS_LineControlReg = 0x3;
    1498:	e3a02003 	mov	r2, #3
    149c:	e5c32236 	strb	r2, [r3, #566]	; 0x236
 // Reset the Fifos in the FiFo Control Reg by setting bits 1 & 2
    TS_FifoControlReg = 0x6; // 0000 0110
    14a0:	e3a02006 	mov	r2, #6
    14a4:	e5c32234 	strb	r2, [r3, #564]	; 0x234
 // Now Clear all bits in the FiFo control registers
    TS_FifoControlReg = 0;
    14a8:	e3a02000 	mov	r2, #0
    14ac:	e5c32234 	strb	r2, [r3, #564]	; 0x234
	//TOUCH_ENABLE command
	while(!(TS_LineStatusReg & 0x20)) ; //wait for transmitter_fifo to not be empty
    14b0:	e34f2f21 	movt	r2, #65313	; 0xff21
    14b4:	e5d2323a 	ldrb	r3, [r2, #570]	; 0x23a
    14b8:	e2033020 	and	r3, r3, #32
    14bc:	e6ef3073 	uxtb	r3, r3
    14c0:	e3530000 	cmp	r3, #0
    14c4:	0afffffa 	beq	14b4 <Init_Touch+0x3c>
    TS_TransmitterFifo = 0x55;
    14c8:	e3a03000 	mov	r3, #0
    14cc:	e34f3f21 	movt	r3, #65313	; 0xff21
    14d0:	e3a02055 	mov	r2, #85	; 0x55
    14d4:	e5c32230 	strb	r2, [r3, #560]	; 0x230
    while(!(TS_LineStatusReg & 0x20)) ;
    14d8:	e3a02000 	mov	r2, #0
    14dc:	e34f2f21 	movt	r2, #65313	; 0xff21
    14e0:	e5d2323a 	ldrb	r3, [r2, #570]	; 0x23a
    14e4:	e2033020 	and	r3, r3, #32
    14e8:	e6ef3073 	uxtb	r3, r3
    14ec:	e3530000 	cmp	r3, #0
    14f0:	0afffffa 	beq	14e0 <Init_Touch+0x68>
    TS_TransmitterFifo = 0x1;
    14f4:	e3a03000 	mov	r3, #0
    14f8:	e34f3f21 	movt	r3, #65313	; 0xff21
    14fc:	e3a02001 	mov	r2, #1
    1500:	e5c32230 	strb	r2, [r3, #560]	; 0x230
    while(!(TS_LineStatusReg & 0x20)) ;
    1504:	e3a02000 	mov	r2, #0
    1508:	e34f2f21 	movt	r2, #65313	; 0xff21
    150c:	e5d2323a 	ldrb	r3, [r2, #570]	; 0x23a
    1510:	e2033020 	and	r3, r3, #32
    1514:	e6ef3073 	uxtb	r3, r3
    1518:	e3530000 	cmp	r3, #0
    151c:	0afffffa 	beq	150c <Init_Touch+0x94>
    TS_TransmitterFifo = 0x12;
    1520:	e3a03000 	mov	r3, #0
    1524:	e34f3f21 	movt	r3, #65313	; 0xff21
    1528:	e3a02012 	mov	r2, #18
    152c:	e5c32230 	strb	r2, [r3, #560]	; 0x230
    1530:	e12fff1e 	bx	lr

00001534 <ScreenTouched>:
** test if screen touched
*****************************************************************************/
int ScreenTouched( void ) {
	// return TRUE if any data received from serial port connected to
	// touchscreen or FALSE otherwise
	return (TS_ReceiverFifo & 0x1);
    1534:	e3a03000 	mov	r3, #0
    1538:	e34f3f21 	movt	r3, #65313	; 0xff21
    153c:	e5d30230 	ldrb	r0, [r3, #560]	; 0x230
}
    1540:	e2000001 	and	r0, r0, #1
    1544:	e12fff1e 	bx	lr

00001548 <WaitForTouch>:

/*****************************************************************************
** wait for screen to be touched
*****************************************************************************/
void WaitForTouch() {
    1548:	e92d4008 	push	{r3, lr}
	while(!ScreenTouched())
    154c:	ebfffff8 	bl	1534 <ScreenTouched>
    1550:	e3500000 	cmp	r0, #0
    1554:	0afffffc 	beq	154c <WaitForTouch+0x4>
	;
}
    1558:	e8bd8008 	pop	{r3, pc}

0000155c <getReceiverFifo>:

int getReceiverFifo(void) {
	while(!(TS_LineStatusReg & 0x1)) //wait for receiver_fifo to not be empty
    155c:	e3a02000 	mov	r2, #0
    1560:	e34f2f21 	movt	r2, #65313	; 0xff21
    1564:	e5d2323a 	ldrb	r3, [r2, #570]	; 0x23a
    1568:	e3130001 	tst	r3, #1
    156c:	0afffffc 	beq	1564 <getReceiverFifo+0x8>
		;
	return TS_ReceiverFifo;
    1570:	e3a03000 	mov	r3, #0
    1574:	e34f3f21 	movt	r3, #65313	; 0xff21
    1578:	e5d30230 	ldrb	r0, [r3, #560]	; 0x230
}
    157c:	e12fff1e 	bx	lr

00001580 <ScalePoint>:
	
	Point p = ScalePoint(unsca_p);
	return p;
}

Point ScalePoint(UnscaledPoint unsca_p) {
    1580:	e52d4004 	push	{r4}		; (str r4, [sp, #-4]!)
    1584:	e24dd00c 	sub	sp, sp, #12
    1588:	e28d3008 	add	r3, sp, #8
    158c:	e9030006 	stmdb	r3, {r1, r2}
	Point p;
	p.x = (unsca_p.x) * 799/4000;
	p.y = (unsca_p.y - 120) *479/3900;
    1590:	e59d3004 	ldr	r3, [sp, #4]
    1594:	e0632203 	rsb	r2, r3, r3, lsl #4
    1598:	e0633282 	rsb	r3, r3, r2, lsl #5
    159c:	e2433a0e 	sub	r3, r3, #57344	; 0xe000
    15a0:	e2433088 	sub	r3, r3, #136	; 0x88
    15a4:	e30b2355 	movw	r2, #45909	; 0xb355
    15a8:	e342219b 	movt	r2, #8603	; 0x219b
    15ac:	e0c24392 	smull	r4, r2, r2, r3
    15b0:	e1a03fc3 	asr	r3, r3, #31
    15b4:	e06314c2 	rsb	r1, r3, r2, asr #9
	return p;
}

Point ScalePoint(UnscaledPoint unsca_p) {
	Point p;
	p.x = (unsca_p.x) * 799/4000;
    15b8:	e300231f 	movw	r2, #799	; 0x31f
    15bc:	e59d3000 	ldr	r3, [sp]
    15c0:	e0030392 	mul	r3, r2, r3
    15c4:	e3042dd3 	movw	r2, #19923	; 0x4dd3
    15c8:	e3412062 	movt	r2, #4194	; 0x1062
    15cc:	e0c24392 	smull	r4, r2, r2, r3
    15d0:	e1a03fc3 	asr	r3, r3, #31
    15d4:	e0633442 	rsb	r3, r3, r2, asr #8
	p.y = (unsca_p.y - 120) *479/3900;
	return p;
    15d8:	e5803000 	str	r3, [r0]
    15dc:	e5801004 	str	r1, [r0, #4]
}
    15e0:	e28dd00c 	add	sp, sp, #12
    15e4:	e8bd0010 	ldmfd	sp!, {r4}
    15e8:	e12fff1e 	bx	lr

000015ec <GetRelease>:
}

/*****************************************************************************
* This function waits for a touch screen release event and returns X,Y coord
*****************************************************************************/
Point GetRelease(void) {
    15ec:	e92d4070 	push	{r4, r5, r6, lr}
    15f0:	e24dd008 	sub	sp, sp, #8
    15f4:	e1a04000 	mov	r4, r0
	// wait for a pen up command then return the X,Y coord of the point
	// calibrated correctly so that it maps to a pixel on screen
	UnscaledPoint unsca_p;
	WaitForTouch();
    15f8:	ebffffd2 	bl	1548 <WaitForTouch>
	while((getReceiverFifo() & 0x81) != 0x80) //wait for pen up command
    15fc:	ebffffd6 	bl	155c <getReceiverFifo>
    1600:	e2000081 	and	r0, r0, #129	; 0x81
    1604:	e3500080 	cmp	r0, #128	; 0x80
    1608:	1afffffb 	bne	15fc <GetRelease+0x10>
		;
	unsca_p.x = getReceiverFifo(); //lower 7 bits
    160c:	ebffffd2 	bl	155c <getReceiverFifo>
    1610:	e1a06000 	mov	r6, r0
	unsca_p.x |= (getReceiverFifo() << 7); //upper 5 bits
    1614:	ebffffd0 	bl	155c <getReceiverFifo>
    1618:	e1866380 	orr	r6, r6, r0, lsl #7
	unsca_p.y = getReceiverFifo(); //lower 7 bits
    161c:	ebffffce 	bl	155c <getReceiverFifo>
    1620:	e1a05000 	mov	r5, r0
	unsca_p.y |= (getReceiverFifo() << 7); //upper 5 bits
    1624:	ebffffcc 	bl	155c <getReceiverFifo>
	
	Point p = ScalePoint(unsca_p);
    1628:	e58d6000 	str	r6, [sp]
	while((getReceiverFifo() & 0x81) != 0x80) //wait for pen up command
		;
	unsca_p.x = getReceiverFifo(); //lower 7 bits
	unsca_p.x |= (getReceiverFifo() << 7); //upper 5 bits
	unsca_p.y = getReceiverFifo(); //lower 7 bits
	unsca_p.y |= (getReceiverFifo() << 7); //upper 5 bits
    162c:	e1850380 	orr	r0, r5, r0, lsl #7
	
	Point p = ScalePoint(unsca_p);
    1630:	e58d0004 	str	r0, [sp, #4]
    1634:	e1a00004 	mov	r0, r4
    1638:	e28d3008 	add	r3, sp, #8
    163c:	e9130006 	ldmdb	r3, {r1, r2}
    1640:	ebffffce 	bl	1580 <ScalePoint>
	return p;
}
    1644:	e1a00004 	mov	r0, r4
    1648:	e28dd008 	add	sp, sp, #8
    164c:	e8bd8070 	pop	{r4, r5, r6, pc}

00001650 <GetPress>:
}

/*****************************************************************************
* This function waits for a touch screen press event and returns X,Y coord
*****************************************************************************/
Point GetPress(void) {
    1650:	e92d4070 	push	{r4, r5, r6, lr}
    1654:	e24dd008 	sub	sp, sp, #8
    1658:	e1a04000 	mov	r4, r0
	// wait for a pen down command then return the X,Y coord of the point
	// calibrated correctly so that it maps to a pixel on screen
	UnscaledPoint unsca_p;
	WaitForTouch();
    165c:	ebffffb9 	bl	1548 <WaitForTouch>
	while((getReceiverFifo() & 0x81) != 0x81) //wait for pen down command
    1660:	ebffffbd 	bl	155c <getReceiverFifo>
    1664:	e2000081 	and	r0, r0, #129	; 0x81
    1668:	e3500081 	cmp	r0, #129	; 0x81
    166c:	1afffffb 	bne	1660 <GetPress+0x10>
		;
	unsca_p.x = getReceiverFifo(); //lower 7 bits
    1670:	ebffffb9 	bl	155c <getReceiverFifo>
    1674:	e1a06000 	mov	r6, r0
	unsca_p.x |= (getReceiverFifo() << 7); //upper 5 bits
    1678:	ebffffb7 	bl	155c <getReceiverFifo>
    167c:	e1866380 	orr	r6, r6, r0, lsl #7
	unsca_p.y = getReceiverFifo(); //lower 7 bits
    1680:	ebffffb5 	bl	155c <getReceiverFifo>
    1684:	e1a05000 	mov	r5, r0
	unsca_p.y |= (getReceiverFifo() << 7); //upper 5 bits
    1688:	ebffffb3 	bl	155c <getReceiverFifo>
	
	Point p = ScalePoint(unsca_p);
    168c:	e58d6000 	str	r6, [sp]
	while((getReceiverFifo() & 0x81) != 0x81) //wait for pen down command
		;
	unsca_p.x = getReceiverFifo(); //lower 7 bits
	unsca_p.x |= (getReceiverFifo() << 7); //upper 5 bits
	unsca_p.y = getReceiverFifo(); //lower 7 bits
	unsca_p.y |= (getReceiverFifo() << 7); //upper 5 bits
    1690:	e1850380 	orr	r0, r5, r0, lsl #7
	
	Point p = ScalePoint(unsca_p);
    1694:	e58d0004 	str	r0, [sp, #4]
    1698:	e1a00004 	mov	r0, r4
    169c:	e28d3008 	add	r3, sp, #8
    16a0:	e9130006 	ldmdb	r3, {r1, r2}
    16a4:	ebffffb5 	bl	1580 <ScalePoint>
	return p;
}
    16a8:	e1a00004 	mov	r0, r4
    16ac:	e28dd008 	add	sp, sp, #8
    16b0:	e8bd8070 	pop	{r4, r5, r6, pc}

000016b4 <atexit>:
    16b4:	e1a01000 	mov	r1, r0
    16b8:	e3a00000 	mov	r0, #0
    16bc:	e92d4008 	push	{r3, lr}
    16c0:	e1a02000 	mov	r2, r0
    16c4:	e1a03000 	mov	r3, r0
    16c8:	eb00091f 	bl	3b4c <__register_exitproc>
    16cc:	e8bd4008 	pop	{r3, lr}
    16d0:	e12fff1e 	bx	lr

000016d4 <exit>:
    16d4:	e92d4008 	push	{r3, lr}
    16d8:	e3a01000 	mov	r1, #0
    16dc:	e1a04000 	mov	r4, r0
    16e0:	eb000956 	bl	3c40 <__call_exitprocs>
    16e4:	e59f3018 	ldr	r3, [pc, #24]	; 1704 <exit+0x30>
    16e8:	e5930000 	ldr	r0, [r3]
    16ec:	e590303c 	ldr	r3, [r0, #60]	; 0x3c
    16f0:	e3530000 	cmp	r3, #0
    16f4:	11a0e00f 	movne	lr, pc
    16f8:	112fff13 	bxne	r3
    16fc:	e1a00004 	mov	r0, r4
    1700:	eb00298c 	bl	bd38 <_exit>
    1704:	00016e94 	.word	0x00016e94

00001708 <_printf_r>:
    1708:	e92d000e 	push	{r1, r2, r3}
    170c:	e52de004 	push	{lr}		; (str lr, [sp, #-4]!)
    1710:	e24dd008 	sub	sp, sp, #8
    1714:	e28dc010 	add	r12, sp, #16
    1718:	e5901008 	ldr	r1, [r0, #8]
    171c:	e59d200c 	ldr	r2, [sp, #12]
    1720:	e1a0300c 	mov	r3, r12
    1724:	e58dc004 	str	r12, [sp, #4]
    1728:	eb000059 	bl	1894 <_vfprintf_r>
    172c:	e28dd008 	add	sp, sp, #8
    1730:	e49de004 	pop	{lr}		; (ldr lr, [sp], #4)
    1734:	e28dd00c 	add	sp, sp, #12
    1738:	e12fff1e 	bx	lr

0000173c <printf>:
    173c:	e92d000f 	push	{r0, r1, r2, r3}
    1740:	e52de004 	push	{lr}		; (str lr, [sp, #-4]!)
    1744:	e59f302c 	ldr	r3, [pc, #44]	; 1778 <printf+0x3c>
    1748:	e24dd00c 	sub	sp, sp, #12
    174c:	e5930000 	ldr	r0, [r3]
    1750:	e28dc014 	add	r12, sp, #20
    1754:	e5901008 	ldr	r1, [r0, #8]
    1758:	e59d2010 	ldr	r2, [sp, #16]
    175c:	e1a0300c 	mov	r3, r12
    1760:	e58dc004 	str	r12, [sp, #4]
    1764:	eb00004a 	bl	1894 <_vfprintf_r>
    1768:	e28dd00c 	add	sp, sp, #12
    176c:	e49de004 	pop	{lr}		; (ldr lr, [sp], #4)
    1770:	e28dd010 	add	sp, sp, #16
    1774:	e12fff1e 	bx	lr
    1778:	000170d0 	.word	0x000170d0

0000177c <_puts_r>:
    177c:	e92d4030 	push	{r4, r5, lr}
    1780:	e1a05000 	mov	r5, r0
    1784:	e24dd024 	sub	sp, sp, #36	; 0x24
    1788:	e1a00001 	mov	r0, r1
    178c:	e1a04001 	mov	r4, r1
    1790:	eb000027 	bl	1834 <strlen>
    1794:	e59f307c 	ldr	r3, [pc, #124]	; 1818 <_puts_r+0x9c>
    1798:	e5933000 	ldr	r3, [r3]
    179c:	e1a02000 	mov	r2, r0
    17a0:	e5933008 	ldr	r3, [r3, #8]
    17a4:	e58d2014 	str	r2, [sp, #20]
    17a8:	e59f206c 	ldr	r2, [pc, #108]	; 181c <_puts_r+0xa0>
    17ac:	e1d310bc 	ldrh	r1, [r3, #12]
    17b0:	e58d2018 	str	r2, [sp, #24]
    17b4:	e3a02001 	mov	r2, #1
    17b8:	e58d201c 	str	r2, [sp, #28]
    17bc:	e28d2010 	add	r2, sp, #16
    17c0:	e3110a02 	tst	r1, #8192	; 0x2000
    17c4:	e58d2004 	str	r2, [sp, #4]
    17c8:	e3a02002 	mov	r2, #2
    17cc:	e58d2008 	str	r2, [sp, #8]
    17d0:	05932064 	ldreq	r2, [r3, #100]	; 0x64
    17d4:	03811a02 	orreq	r1, r1, #8192	; 0x2000
    17d8:	03c22a02 	biceq	r2, r2, #8192	; 0x2000
    17dc:	e2800001 	add	r0, r0, #1
    17e0:	01c310bc 	strheq	r1, [r3, #12]
    17e4:	05832064 	streq	r2, [r3, #100]	; 0x64
    17e8:	e58d000c 	str	r0, [sp, #12]
    17ec:	e5951008 	ldr	r1, [r5, #8]
    17f0:	e1a00005 	mov	r0, r5
    17f4:	e28d2004 	add	r2, sp, #4
    17f8:	e58d4010 	str	r4, [sp, #16]
    17fc:	eb0011d8 	bl	5f64 <__sfvwrite_r>
    1800:	e3500000 	cmp	r0, #0
    1804:	03a0000a 	moveq	r0, #10
    1808:	13e00000 	mvnne	r0, #0
    180c:	e28dd024 	add	sp, sp, #36	; 0x24
    1810:	e8bd4030 	pop	{r4, r5, lr}
    1814:	e12fff1e 	bx	lr
    1818:	000170d0 	.word	0x000170d0
    181c:	00016e9c 	.word	0x00016e9c

00001820 <puts>:
    1820:	e59f3008 	ldr	r3, [pc, #8]	; 1830 <puts+0x10>
    1824:	e1a01000 	mov	r1, r0
    1828:	e5930000 	ldr	r0, [r3]
    182c:	eaffffd2 	b	177c <_puts_r>
    1830:	000170d0 	.word	0x000170d0

00001834 <strlen>:
    1834:	e3c01003 	bic	r1, r0, #3
    1838:	e2100003 	ands	r0, r0, #3
    183c:	e2600000 	rsb	r0, r0, #0
    1840:	e4913004 	ldr	r3, [r1], #4
    1844:	e280c004 	add	r12, r0, #4
    1848:	e1a0c18c 	lsl	r12, r12, #3
    184c:	e3e02000 	mvn	r2, #0
    1850:	11833c32 	orrne	r3, r3, r2, lsr r12
    1854:	e3a0c001 	mov	r12, #1
    1858:	e18cc40c 	orr	r12, r12, r12, lsl #8
    185c:	e18cc80c 	orr	r12, r12, r12, lsl #16
    1860:	e043200c 	sub	r2, r3, r12
    1864:	e1c22003 	bic	r2, r2, r3
    1868:	e012238c 	ands	r2, r2, r12, lsl #7
    186c:	04913004 	ldreq	r3, [r1], #4
    1870:	02800004 	addeq	r0, r0, #4
    1874:	0afffff9 	beq	1860 <strlen+0x2c>
    1878:	e31300ff 	tst	r3, #255	; 0xff
    187c:	12800001 	addne	r0, r0, #1
    1880:	13130cff 	tstne	r3, #65280	; 0xff00
    1884:	12800001 	addne	r0, r0, #1
    1888:	131308ff 	tstne	r3, #16711680	; 0xff0000
    188c:	12800001 	addne	r0, r0, #1
    1890:	e12fff1e 	bx	lr

00001894 <_vfprintf_r>:
    1894:	e92d4ff0 	push	{r4, r5, r6, r7, r8, r9, r10, r11, lr}
    1898:	e24ddd15 	sub	sp, sp, #1344	; 0x540
    189c:	e24dd004 	sub	sp, sp, #4
    18a0:	e1a09001 	mov	r9, r1
    18a4:	e1a04002 	mov	r4, r2
    18a8:	e58d303c 	str	r3, [sp, #60]	; 0x3c
    18ac:	e58d002c 	str	r0, [sp, #44]	; 0x2c
    18b0:	eb001348 	bl	65d8 <_localeconv_r>
    18b4:	e5900000 	ldr	r0, [r0]
    18b8:	e58d0058 	str	r0, [sp, #88]	; 0x58
    18bc:	ebffffdc 	bl	1834 <strlen>
    18c0:	e59d602c 	ldr	r6, [sp, #44]	; 0x2c
    18c4:	e3a0b000 	mov	r11, #0
    18c8:	e3a0c000 	mov	r12, #0
    18cc:	e3560000 	cmp	r6, #0
    18d0:	e58d0064 	str	r0, [sp, #100]	; 0x64
    18d4:	e58db068 	str	r11, [sp, #104]	; 0x68
    18d8:	e58dc06c 	str	r12, [sp, #108]	; 0x6c
    18dc:	0a000002 	beq	18ec <_vfprintf_r+0x58>
    18e0:	e5963038 	ldr	r3, [r6, #56]	; 0x38
    18e4:	e3530000 	cmp	r3, #0
    18e8:	0a000101 	beq	1cf4 <_vfprintf_r+0x460>
    18ec:	e1d980bc 	ldrh	r8, [r9, #12]
    18f0:	e3180a02 	tst	r8, #8192	; 0x2000
    18f4:	05993064 	ldreq	r3, [r9, #100]	; 0x64
    18f8:	03888a02 	orreq	r8, r8, #8192	; 0x2000
    18fc:	03c33a02 	biceq	r3, r3, #8192	; 0x2000
    1900:	01c980bc 	strheq	r8, [r9, #12]
    1904:	05893064 	streq	r3, [r9, #100]	; 0x64
    1908:	e3180008 	tst	r8, #8
    190c:	0a0000aa 	beq	1bbc <_vfprintf_r+0x328>
    1910:	e5993010 	ldr	r3, [r9, #16]
    1914:	e3530000 	cmp	r3, #0
    1918:	0a0000a7 	beq	1bbc <_vfprintf_r+0x328>
    191c:	e208301a 	and	r3, r8, #26
    1920:	e353000a 	cmp	r3, #10
    1924:	0a0000c4 	beq	1c3c <_vfprintf_r+0x3a8>
    1928:	e28d60d8 	add	r6, sp, #216	; 0xd8
    192c:	e28d70d7 	add	r7, sp, #215	; 0xd7
    1930:	e3a03000 	mov	r3, #0
    1934:	e28dbd05 	add	r11, sp, #320	; 0x140
    1938:	e58d4028 	str	r4, [sp, #40]	; 0x28
    193c:	e0674006 	rsb	r4, r7, r6
    1940:	e58d3044 	str	r3, [sp, #68]	; 0x44
    1944:	e58d6054 	str	r6, [sp, #84]	; 0x54
    1948:	e58d705c 	str	r7, [sp, #92]	; 0x5c
    194c:	e58db0a4 	str	r11, [sp, #164]	; 0xa4
    1950:	e58d30ac 	str	r3, [sp, #172]	; 0xac
    1954:	e58d30a8 	str	r3, [sp, #168]	; 0xa8
    1958:	e58d3074 	str	r3, [sp, #116]	; 0x74
    195c:	e58d3070 	str	r3, [sp, #112]	; 0x70
    1960:	e58d3034 	str	r3, [sp, #52]	; 0x34
    1964:	e58d407c 	str	r4, [sp, #124]	; 0x7c
    1968:	e58d901c 	str	r9, [sp, #28]
    196c:	e1a0c00b 	mov	r12, r11
    1970:	e1a0500b 	mov	r5, r11
    1974:	e59d6028 	ldr	r6, [sp, #40]	; 0x28
    1978:	e5d63000 	ldrb	r3, [r6]
    197c:	e3530025 	cmp	r3, #37	; 0x25
    1980:	13530000 	cmpne	r3, #0
    1984:	0a0000dd 	beq	1d00 <_vfprintf_r+0x46c>
    1988:	e2863001 	add	r3, r6, #1
    198c:	e1a07003 	mov	r7, r3
    1990:	e5d33000 	ldrb	r3, [r3]
    1994:	e3530025 	cmp	r3, #37	; 0x25
    1998:	13530000 	cmpne	r3, #0
    199c:	e2873001 	add	r3, r7, #1
    19a0:	1afffff9 	bne	198c <_vfprintf_r+0xf8>
    19a4:	e59dc028 	ldr	r12, [sp, #40]	; 0x28
    19a8:	e057800c 	subs	r8, r7, r12
    19ac:	0a00000d 	beq	19e8 <_vfprintf_r+0x154>
    19b0:	e28d40a8 	add	r4, sp, #168	; 0xa8
    19b4:	e8940050 	ldm	r4, {r4, r6}
    19b8:	e2844001 	add	r4, r4, #1
    19bc:	e0866008 	add	r6, r6, r8
    19c0:	e3540007 	cmp	r4, #7
    19c4:	e585c000 	str	r12, [r5]
    19c8:	e5858004 	str	r8, [r5, #4]
    19cc:	e58d60ac 	str	r6, [sp, #172]	; 0xac
    19d0:	e58d40a8 	str	r4, [sp, #168]	; 0xa8
    19d4:	d2855008 	addle	r5, r5, #8
    19d8:	ca000084 	bgt	1bf0 <_vfprintf_r+0x35c>
    19dc:	e59d4034 	ldr	r4, [sp, #52]	; 0x34
    19e0:	e0844008 	add	r4, r4, r8
    19e4:	e58d4034 	str	r4, [sp, #52]	; 0x34
    19e8:	e5d73000 	ldrb	r3, [r7]
    19ec:	e3530000 	cmp	r3, #0
    19f0:	0a000699 	beq	345c <__cs3_region_zero_size_ram+0x140c>
    19f4:	e2876001 	add	r6, r7, #1
    19f8:	e3a03000 	mov	r3, #0
    19fc:	e58d6028 	str	r6, [sp, #40]	; 0x28
    1a00:	e5d78001 	ldrb	r8, [r7, #1]
    1a04:	e58d3030 	str	r3, [sp, #48]	; 0x30
    1a08:	e5cd3083 	strb	r3, [sp, #131]	; 0x83
    1a0c:	e58d3018 	str	r3, [sp, #24]
    1a10:	e3e04000 	mvn	r4, #0
    1a14:	e3a01020 	mov	r1, #32
    1a18:	e3a0202b 	mov	r2, #43	; 0x2b
    1a1c:	e1a03006 	mov	r3, r6
    1a20:	e2833001 	add	r3, r3, #1
    1a24:	e2480020 	sub	r0, r8, #32
    1a28:	e3500058 	cmp	r0, #88	; 0x58
    1a2c:	979ff100 	ldrls	pc, [pc, r0, lsl #2]
    1a30:	ea000224 	b	22c8 <__cs3_region_zero_size_ram+0x278>
    1a34:	00002304 	.word	0x00002304
    1a38:	000022c8 	.word	0x000022c8
    1a3c:	000022c8 	.word	0x000022c8
    1a40:	0000231c 	.word	0x0000231c
    1a44:	000022c8 	.word	0x000022c8
    1a48:	000022c8 	.word	0x000022c8
    1a4c:	000022c8 	.word	0x000022c8
    1a50:	000022c8 	.word	0x000022c8
    1a54:	000022c8 	.word	0x000022c8
    1a58:	000022c8 	.word	0x000022c8
    1a5c:	00002330 	.word	0x00002330
    1a60:	00001d08 	.word	0x00001d08
    1a64:	000022c8 	.word	0x000022c8
    1a68:	00001ba8 	.word	0x00001ba8
    1a6c:	00001d14 	.word	0x00001d14
    1a70:	000022c8 	.word	0x000022c8
    1a74:	00001d60 	.word	0x00001d60
    1a78:	00001d74 	.word	0x00001d74
    1a7c:	00001d74 	.word	0x00001d74
    1a80:	00001d74 	.word	0x00001d74
    1a84:	00001d74 	.word	0x00001d74
    1a88:	00001d74 	.word	0x00001d74
    1a8c:	00001d74 	.word	0x00001d74
    1a90:	00001d74 	.word	0x00001d74
    1a94:	00001d74 	.word	0x00001d74
    1a98:	00001d74 	.word	0x00001d74
    1a9c:	000022c8 	.word	0x000022c8
    1aa0:	000022c8 	.word	0x000022c8
    1aa4:	000022c8 	.word	0x000022c8
    1aa8:	000022c8 	.word	0x000022c8
    1aac:	000022c8 	.word	0x000022c8
    1ab0:	000022c8 	.word	0x000022c8
    1ab4:	000022c8 	.word	0x000022c8
    1ab8:	000022c8 	.word	0x000022c8
    1abc:	000022c8 	.word	0x000022c8
    1ac0:	000022c8 	.word	0x000022c8
    1ac4:	00001da4 	.word	0x00001da4
    1ac8:	00001fe0 	.word	0x00001fe0
    1acc:	000022c8 	.word	0x000022c8
    1ad0:	00001fe0 	.word	0x00001fe0
    1ad4:	000022c8 	.word	0x000022c8
    1ad8:	000022c8 	.word	0x000022c8
    1adc:	000022c8 	.word	0x000022c8
    1ae0:	000022c8 	.word	0x000022c8
    1ae4:	00002090 	.word	0x00002090
    1ae8:	000022c8 	.word	0x000022c8
    1aec:	000022c8 	.word	0x000022c8
    1af0:	000020a4 	.word	0x000020a4
    1af4:	000022c8 	.word	0x000022c8
    1af8:	000022c8 	.word	0x000022c8
    1afc:	000022c8 	.word	0x000022c8
    1b00:	000022c8 	.word	0x000022c8
    1b04:	000022c8 	.word	0x000022c8
    1b08:	000020f4 	.word	0x000020f4
    1b0c:	000022c8 	.word	0x000022c8
    1b10:	000022c8 	.word	0x000022c8
    1b14:	0000213c 	.word	0x0000213c
    1b18:	000022c8 	.word	0x000022c8
    1b1c:	000022c8 	.word	0x000022c8
    1b20:	000022c8 	.word	0x000022c8
    1b24:	000022c8 	.word	0x000022c8
    1b28:	000022c8 	.word	0x000022c8
    1b2c:	000022c8 	.word	0x000022c8
    1b30:	000022c8 	.word	0x000022c8
    1b34:	000022c8 	.word	0x000022c8
    1b38:	000022c8 	.word	0x000022c8
    1b3c:	000022c8 	.word	0x000022c8
    1b40:	00002438 	.word	0x00002438
    1b44:	000023e0 	.word	0x000023e0
    1b48:	00001fe0 	.word	0x00001fe0
    1b4c:	00001fe0 	.word	0x00001fe0
    1b50:	00001fe0 	.word	0x00001fe0
    1b54:	00002424 	.word	0x00002424
    1b58:	000023e0 	.word	0x000023e0
    1b5c:	000022c8 	.word	0x000022c8
    1b60:	000022c8 	.word	0x000022c8
    1b64:	00002220 	.word	0x00002220
    1b68:	000022c8 	.word	0x000022c8
    1b6c:	00002250 	.word	0x00002250
    1b70:	00002284 	.word	0x00002284
    1b74:	00002474 	.word	0x00002474
    1b78:	0000218c 	.word	0x0000218c
    1b7c:	000022c8 	.word	0x000022c8
    1b80:	000021a0 	.word	0x000021a0
    1b84:	000022c8 	.word	0x000022c8
    1b88:	00002358 	.word	0x00002358
    1b8c:	000022c8 	.word	0x000022c8
    1b90:	000022c8 	.word	0x000022c8
    1b94:	000023a0 	.word	0x000023a0
    1b98:	e59d6030 	ldr	r6, [sp, #48]	; 0x30
    1b9c:	e2666000 	rsb	r6, r6, #0
    1ba0:	e58d6030 	str	r6, [sp, #48]	; 0x30
    1ba4:	e58d003c 	str	r0, [sp, #60]	; 0x3c
    1ba8:	e59d7018 	ldr	r7, [sp, #24]
    1bac:	e3877004 	orr	r7, r7, #4
    1bb0:	e58d7018 	str	r7, [sp, #24]
    1bb4:	e5d38000 	ldrb	r8, [r3]
    1bb8:	eaffff98 	b	1a20 <_vfprintf_r+0x18c>
    1bbc:	e59d002c 	ldr	r0, [sp, #44]	; 0x2c
    1bc0:	e1a01009 	mov	r1, r9
    1bc4:	eb000792 	bl	3a14 <__swsetup_r>
    1bc8:	e3500000 	cmp	r0, #0
    1bcc:	01d980bc 	ldrheq	r8, [r9, #12]
    1bd0:	0affff51 	beq	191c <_vfprintf_r+0x88>
    1bd4:	e3e0c000 	mvn	r12, #0
    1bd8:	e58dc034 	str	r12, [sp, #52]	; 0x34
    1bdc:	e59d0034 	ldr	r0, [sp, #52]	; 0x34
    1be0:	e28ddf51 	add	sp, sp, #324	; 0x144
    1be4:	e28ddb01 	add	sp, sp, #1024	; 0x400
    1be8:	e8bd4ff0 	pop	{r4, r5, r6, r7, r8, r9, r10, r11, lr}
    1bec:	e12fff1e 	bx	lr
    1bf0:	e59d002c 	ldr	r0, [sp, #44]	; 0x2c
    1bf4:	e59d101c 	ldr	r1, [sp, #28]
    1bf8:	e28d20a4 	add	r2, sp, #164	; 0xa4
    1bfc:	eb001b99 	bl	8a68 <__sprint_r>
    1c00:	e3500000 	cmp	r0, #0
    1c04:	1a000007 	bne	1c28 <_vfprintf_r+0x394>
    1c08:	e28d5d05 	add	r5, sp, #320	; 0x140
    1c0c:	eaffff72 	b	19dc <_vfprintf_r+0x148>
    1c10:	e59d002c 	ldr	r0, [sp, #44]	; 0x2c
    1c14:	e59d101c 	ldr	r1, [sp, #28]
    1c18:	e28d20a4 	add	r2, sp, #164	; 0xa4
    1c1c:	eb001b91 	bl	8a68 <__sprint_r>
    1c20:	e3500000 	cmp	r0, #0
    1c24:	0a0002d2 	beq	2774 <__cs3_region_zero_size_ram+0x724>
    1c28:	e59d901c 	ldr	r9, [sp, #28]
    1c2c:	e1d930bc 	ldrh	r3, [r9, #12]
    1c30:	e3130040 	tst	r3, #64	; 0x40
    1c34:	1affffe6 	bne	1bd4 <_vfprintf_r+0x340>
    1c38:	eaffffe7 	b	1bdc <_vfprintf_r+0x348>
    1c3c:	e1d9c0be 	ldrh	r12, [r9, #14]
    1c40:	e31c0902 	tst	r12, #32768	; 0x8000
    1c44:	1affff37 	bne	1928 <_vfprintf_r+0x94>
    1c48:	e1a02004 	mov	r2, r4
    1c4c:	e59f4fb0 	ldr	r4, [pc, #4016]	; 2c04 <__cs3_region_zero_size_ram+0xbb4>
    1c50:	e28dbd15 	add	r11, sp, #1344	; 0x540
    1c54:	e3c88002 	bic	r8, r8, #2
    1c58:	e18b80b4 	strh	r8, [r11, r4]
    1c5c:	e5997064 	ldr	r7, [r9, #100]	; 0x64
    1c60:	e599601c 	ldr	r6, [r9, #28]
    1c64:	e599a024 	ldr	r10, [r9, #36]	; 0x24
    1c68:	e2844002 	add	r4, r4, #2
    1c6c:	e3a0eb01 	mov	lr, #1024	; 0x400
    1c70:	e28d5d05 	add	r5, sp, #320	; 0x140
    1c74:	e18bc0b4 	strh	r12, [r11, r4]
    1c78:	e59d002c 	ldr	r0, [sp, #44]	; 0x2c
    1c7c:	e3a0c000 	mov	r12, #0
    1c80:	e28d10d8 	add	r1, sp, #216	; 0xd8
    1c84:	e59d303c 	ldr	r3, [sp, #60]	; 0x3c
    1c88:	e58d713c 	str	r7, [sp, #316]	; 0x13c
    1c8c:	e58d60f4 	str	r6, [sp, #244]	; 0xf4
    1c90:	e58da0fc 	str	r10, [sp, #252]	; 0xfc
    1c94:	e58d50d8 	str	r5, [sp, #216]	; 0xd8
    1c98:	e58d50e8 	str	r5, [sp, #232]	; 0xe8
    1c9c:	e58de0e0 	str	lr, [sp, #224]	; 0xe0
    1ca0:	e58de0ec 	str	lr, [sp, #236]	; 0xec
    1ca4:	e58dc0f0 	str	r12, [sp, #240]	; 0xf0
    1ca8:	ebfffef9 	bl	1894 <_vfprintf_r>
    1cac:	e3500000 	cmp	r0, #0
    1cb0:	e58d0034 	str	r0, [sp, #52]	; 0x34
    1cb4:	ba000006 	blt	1cd4 <_vfprintf_r+0x440>
    1cb8:	e59d002c 	ldr	r0, [sp, #44]	; 0x2c
    1cbc:	e28d10d8 	add	r1, sp, #216	; 0xd8
    1cc0:	eb000e70 	bl	5688 <_fflush_r>
    1cc4:	e59dc034 	ldr	r12, [sp, #52]	; 0x34
    1cc8:	e3500000 	cmp	r0, #0
    1ccc:	13e0c000 	mvnne	r12, #0
    1cd0:	e58dc034 	str	r12, [sp, #52]	; 0x34
    1cd4:	e59f3f28 	ldr	r3, [pc, #3880]	; 2c04 <__cs3_region_zero_size_ram+0xbb4>
    1cd8:	e28d0d15 	add	r0, sp, #1344	; 0x540
    1cdc:	e19030b3 	ldrh	r3, [r0, r3]
    1ce0:	e3130040 	tst	r3, #64	; 0x40
    1ce4:	11d930bc 	ldrhne	r3, [r9, #12]
    1ce8:	13833040 	orrne	r3, r3, #64	; 0x40
    1cec:	11c930bc 	strhne	r3, [r9, #12]
    1cf0:	eaffffb9 	b	1bdc <_vfprintf_r+0x348>
    1cf4:	e1a00006 	mov	r0, r6
    1cf8:	eb000f3c 	bl	59f0 <__sinit>
    1cfc:	eafffefa 	b	18ec <_vfprintf_r+0x58>
    1d00:	e59d7028 	ldr	r7, [sp, #40]	; 0x28
    1d04:	eaffff37 	b	19e8 <_vfprintf_r+0x154>
    1d08:	e5cd2083 	strb	r2, [sp, #131]	; 0x83
    1d0c:	e5d38000 	ldrb	r8, [r3]
    1d10:	eaffff42 	b	1a20 <_vfprintf_r+0x18c>
    1d14:	e1a0c003 	mov	r12, r3
    1d18:	e4dc8001 	ldrb	r8, [r12], #1
    1d1c:	e358002a 	cmp	r8, #42	; 0x2a
    1d20:	0a000717 	beq	3984 <__cs3_region_zero_size_ram+0x1934>
    1d24:	e2480030 	sub	r0, r8, #48	; 0x30
    1d28:	e3500009 	cmp	r0, #9
    1d2c:	81a0300c 	movhi	r3, r12
    1d30:	83a04000 	movhi	r4, #0
    1d34:	8affff3a 	bhi	1a24 <_vfprintf_r+0x190>
    1d38:	e3a04000 	mov	r4, #0
    1d3c:	e4dc8001 	ldrb	r8, [r12], #1
    1d40:	e0844104 	add	r4, r4, r4, lsl #2
    1d44:	e0804084 	add	r4, r0, r4, lsl #1
    1d48:	e2480030 	sub	r0, r8, #48	; 0x30
    1d4c:	e3500009 	cmp	r0, #9
    1d50:	e1a0300c 	mov	r3, r12
    1d54:	9afffff8 	bls	1d3c <_vfprintf_r+0x4a8>
    1d58:	e1844fc4 	orr	r4, r4, r4, asr #31
    1d5c:	eaffff30 	b	1a24 <_vfprintf_r+0x190>
    1d60:	e59dc018 	ldr	r12, [sp, #24]
    1d64:	e38cc080 	orr	r12, r12, #128	; 0x80
    1d68:	e58dc018 	str	r12, [sp, #24]
    1d6c:	e5d38000 	ldrb	r8, [r3]
    1d70:	eaffff2a 	b	1a20 <_vfprintf_r+0x18c>
    1d74:	e1a0c003 	mov	r12, r3
    1d78:	e3a00000 	mov	r0, #0
    1d7c:	e2483030 	sub	r3, r8, #48	; 0x30
    1d80:	e4dc8001 	ldrb	r8, [r12], #1
    1d84:	e2486030 	sub	r6, r8, #48	; 0x30
    1d88:	e0800100 	add	r0, r0, r0, lsl #2
    1d8c:	e3560009 	cmp	r6, #9
    1d90:	e0830080 	add	r0, r3, r0, lsl #1
    1d94:	e1a0300c 	mov	r3, r12
    1d98:	9afffff7 	bls	1d7c <_vfprintf_r+0x4e8>
    1d9c:	e58d0030 	str	r0, [sp, #48]	; 0x30
    1da0:	eaffff1f 	b	1a24 <_vfprintf_r+0x190>
    1da4:	e59d6018 	ldr	r6, [sp, #24]
    1da8:	e3866010 	orr	r6, r6, #16
    1dac:	e58d6018 	str	r6, [sp, #24]
    1db0:	e59d7018 	ldr	r7, [sp, #24]
    1db4:	e3170020 	tst	r7, #32
    1db8:	e58d3028 	str	r3, [sp, #40]	; 0x28
    1dbc:	0a00018b 	beq	23f0 <__cs3_region_zero_size_ram+0x3a0>
    1dc0:	e59db03c 	ldr	r11, [sp, #60]	; 0x3c
    1dc4:	e28b1007 	add	r1, r11, #7
    1dc8:	e3c11007 	bic	r1, r1, #7
    1dcc:	e891000c 	ldm	r1, {r2, r3}
    1dd0:	e2811008 	add	r1, r1, #8
    1dd4:	e58d103c 	str	r1, [sp, #60]	; 0x3c
    1dd8:	e1a06002 	mov	r6, r2
    1ddc:	e1a07003 	mov	r7, r3
    1de0:	e3520000 	cmp	r2, #0
    1de4:	e2d30000 	sbcs	r0, r3, #0
    1de8:	ba0004ae 	blt	30a8 <__cs3_region_zero_size_ram+0x1058>
    1dec:	e1961007 	orrs	r1, r6, r7
    1df0:	03a02000 	moveq	r2, #0
    1df4:	13a02001 	movne	r2, #1
    1df8:	e3a03001 	mov	r3, #1
    1dfc:	e3540000 	cmp	r4, #0
    1e00:	a59dc018 	ldrge	r12, [sp, #24]
    1e04:	a3ccc080 	bicge	r12, r12, #128	; 0x80
    1e08:	a58dc018 	strge	r12, [sp, #24]
    1e0c:	e3540000 	cmp	r4, #0
    1e10:	13822001 	orrne	r2, r2, #1
    1e14:	e3520000 	cmp	r2, #0
    1e18:	0a0002a4 	beq	28b0 <__cs3_region_zero_size_ram+0x860>
    1e1c:	e3530001 	cmp	r3, #1
    1e20:	0a000397 	beq	2c84 <__cs3_region_zero_size_ram+0xc34>
    1e24:	e3530002 	cmp	r3, #2
    1e28:	e59dc05c 	ldr	r12, [sp, #92]	; 0x5c
    1e2c:	0a000380 	beq	2c34 <__cs3_region_zero_size_ram+0xbe4>
    1e30:	e3a00007 	mov	r0, #7
    1e34:	e1a0a1a6 	lsr	r10, r6, #3
    1e38:	e18aae87 	orr	r10, r10, r7, lsl #29
    1e3c:	e0062000 	and	r2, r6, r0
    1e40:	e1a031a7 	lsr	r3, r7, #3
    1e44:	e1a07003 	mov	r7, r3
    1e48:	e1a0600a 	mov	r6, r10
    1e4c:	e2822030 	add	r2, r2, #48	; 0x30
    1e50:	e20220ff 	and	r2, r2, #255	; 0xff
    1e54:	e196b007 	orrs	r11, r6, r7
    1e58:	e1a0300c 	mov	r3, r12
    1e5c:	e5cc2000 	strb	r2, [r12]
    1e60:	e24cc001 	sub	r12, r12, #1
    1e64:	1afffff2 	bne	1e34 <_vfprintf_r+0x5a0>
    1e68:	e59d6018 	ldr	r6, [sp, #24]
    1e6c:	e3160001 	tst	r6, #1
    1e70:	e58d304c 	str	r3, [sp, #76]	; 0x4c
    1e74:	1a00047f 	bne	3078 <__cs3_region_zero_size_ram+0x1028>
    1e78:	e59d7054 	ldr	r7, [sp, #84]	; 0x54
    1e7c:	e0637007 	rsb	r7, r3, r7
    1e80:	e58d7038 	str	r7, [sp, #56]	; 0x38
    1e84:	e59d7038 	ldr	r7, [sp, #56]	; 0x38
    1e88:	e3a0b000 	mov	r11, #0
    1e8c:	e1570004 	cmp	r7, r4
    1e90:	b1a07004 	movlt	r7, r4
    1e94:	e58d7020 	str	r7, [sp, #32]
    1e98:	e5dd3083 	ldrb	r3, [sp, #131]	; 0x83
    1e9c:	e58d4040 	str	r4, [sp, #64]	; 0x40
    1ea0:	e58db060 	str	r11, [sp, #96]	; 0x60
    1ea4:	e3530000 	cmp	r3, #0
    1ea8:	0a000002 	beq	1eb8 <_vfprintf_r+0x624>
    1eac:	e59d7020 	ldr	r7, [sp, #32]
    1eb0:	e2877001 	add	r7, r7, #1
    1eb4:	e58d7020 	str	r7, [sp, #32]
    1eb8:	e59db018 	ldr	r11, [sp, #24]
    1ebc:	e21bb002 	ands	r11, r11, #2
    1ec0:	159dc020 	ldrne	r12, [sp, #32]
    1ec4:	e59d3018 	ldr	r3, [sp, #24]
    1ec8:	128cc002 	addne	r12, r12, #2
    1ecc:	158dc020 	strne	r12, [sp, #32]
    1ed0:	e2133084 	ands	r3, r3, #132	; 0x84
    1ed4:	e58db048 	str	r11, [sp, #72]	; 0x48
    1ed8:	e58d3050 	str	r3, [sp, #80]	; 0x50
    1edc:	1a000178 	bne	24c4 <__cs3_region_zero_size_ram+0x474>
    1ee0:	e59d4030 	ldr	r4, [sp, #48]	; 0x30
    1ee4:	e59d6020 	ldr	r6, [sp, #32]
    1ee8:	e0667004 	rsb	r7, r6, r4
    1eec:	e3570000 	cmp	r7, #0
    1ef0:	da000173 	ble	24c4 <__cs3_region_zero_size_ram+0x474>
    1ef4:	e28d40a8 	add	r4, sp, #168	; 0xa8
    1ef8:	e3570010 	cmp	r7, #16
    1efc:	e8940050 	ldm	r4, {r4, r6}
    1f00:	e59f9d00 	ldr	r9, [pc, #3328]	; 2c08 <__cs3_region_zero_size_ram+0xbb8>
    1f04:	da000023 	ble	1f98 <_vfprintf_r+0x704>
    1f08:	e28da0a4 	add	r10, sp, #164	; 0xa4
    1f0c:	e1a03009 	mov	r3, r9
    1f10:	e58d8078 	str	r8, [sp, #120]	; 0x78
    1f14:	e1a09007 	mov	r9, r7
    1f18:	e1a0800a 	mov	r8, r10
    1f1c:	e3a0b010 	mov	r11, #16
    1f20:	e59da02c 	ldr	r10, [sp, #44]	; 0x2c
    1f24:	e1a07003 	mov	r7, r3
    1f28:	ea000002 	b	1f38 <_vfprintf_r+0x6a4>
    1f2c:	e2499010 	sub	r9, r9, #16
    1f30:	e3590010 	cmp	r9, #16
    1f34:	da000013 	ble	1f88 <_vfprintf_r+0x6f4>
    1f38:	e2844001 	add	r4, r4, #1
    1f3c:	e3540007 	cmp	r4, #7
    1f40:	e2866010 	add	r6, r6, #16
    1f44:	e8850880 	stm	r5, {r7, r11}
    1f48:	e58d60ac 	str	r6, [sp, #172]	; 0xac
    1f4c:	e58d40a8 	str	r4, [sp, #168]	; 0xa8
    1f50:	d2855008 	addle	r5, r5, #8
    1f54:	dafffff4 	ble	1f2c <_vfprintf_r+0x698>
    1f58:	e1a0000a 	mov	r0, r10
    1f5c:	e59d101c 	ldr	r1, [sp, #28]
    1f60:	e1a02008 	mov	r2, r8
    1f64:	eb001abf 	bl	8a68 <__sprint_r>
    1f68:	e3500000 	cmp	r0, #0
    1f6c:	1affff2d 	bne	1c28 <_vfprintf_r+0x394>
    1f70:	e2499010 	sub	r9, r9, #16
    1f74:	e28d40a8 	add	r4, sp, #168	; 0xa8
    1f78:	e3590010 	cmp	r9, #16
    1f7c:	e8940050 	ldm	r4, {r4, r6}
    1f80:	e28d5d05 	add	r5, sp, #320	; 0x140
    1f84:	caffffeb 	bgt	1f38 <_vfprintf_r+0x6a4>
    1f88:	e1a03007 	mov	r3, r7
    1f8c:	e59d8078 	ldr	r8, [sp, #120]	; 0x78
    1f90:	e1a07009 	mov	r7, r9
    1f94:	e1a09003 	mov	r9, r3
    1f98:	e2844001 	add	r4, r4, #1
    1f9c:	e0866007 	add	r6, r6, r7
    1fa0:	e3540007 	cmp	r4, #7
    1fa4:	e5859000 	str	r9, [r5]
    1fa8:	e5857004 	str	r7, [r5, #4]
    1fac:	e58d60ac 	str	r6, [sp, #172]	; 0xac
    1fb0:	e58d40a8 	str	r4, [sp, #168]	; 0xa8
    1fb4:	d2855008 	addle	r5, r5, #8
    1fb8:	da000142 	ble	24c8 <__cs3_region_zero_size_ram+0x478>
    1fbc:	e59d002c 	ldr	r0, [sp, #44]	; 0x2c
    1fc0:	e59d101c 	ldr	r1, [sp, #28]
    1fc4:	e28d20a4 	add	r2, sp, #164	; 0xa4
    1fc8:	eb001aa6 	bl	8a68 <__sprint_r>
    1fcc:	e3500000 	cmp	r0, #0
    1fd0:	1affff14 	bne	1c28 <_vfprintf_r+0x394>
    1fd4:	e59d60ac 	ldr	r6, [sp, #172]	; 0xac
    1fd8:	e28d5d05 	add	r5, sp, #320	; 0x140
    1fdc:	ea000139 	b	24c8 <__cs3_region_zero_size_ram+0x478>
    1fe0:	e59d6018 	ldr	r6, [sp, #24]
    1fe4:	e3160008 	tst	r6, #8
    1fe8:	e58d3028 	str	r3, [sp, #40]	; 0x28
    1fec:	0a000493 	beq	3240 <__cs3_region_zero_size_ram+0x11f0>
    1ff0:	e59d703c 	ldr	r7, [sp, #60]	; 0x3c
    1ff4:	e2871007 	add	r1, r7, #7
    1ff8:	e3c11007 	bic	r1, r1, #7
    1ffc:	e591a000 	ldr	r10, [r1]
    2000:	e5917004 	ldr	r7, [r1, #4]
    2004:	e1a0b00a 	mov	r11, r10
    2008:	e1a0c007 	mov	r12, r7
    200c:	e2811008 	add	r1, r1, #8
    2010:	e58db068 	str	r11, [sp, #104]	; 0x68
    2014:	e58dc06c 	str	r12, [sp, #108]	; 0x6c
    2018:	e58d103c 	str	r1, [sp, #60]	; 0x3c
    201c:	e1a01007 	mov	r1, r7
    2020:	e1a0000a 	mov	r0, r10
    2024:	eb0019a1 	bl	86b0 <__fpclassifyd>
    2028:	e3500001 	cmp	r0, #1
    202c:	e1a01007 	mov	r1, r7
    2030:	e1a0000a 	mov	r0, r10
    2034:	1a000426 	bne	30d4 <__cs3_region_zero_size_ram+0x1084>
    2038:	e3a03000 	mov	r3, #0
    203c:	e3a02000 	mov	r2, #0
    2040:	eb00243c 	bl	b138 <__aeabi_dcmplt>
    2044:	e3500000 	cmp	r0, #0
    2048:	13a0302d 	movne	r3, #45	; 0x2d
    204c:	e59d7018 	ldr	r7, [sp, #24]
    2050:	e59f2bb4 	ldr	r2, [pc, #2996]	; 2c0c <__cs3_region_zero_size_ram+0xbbc>
    2054:	e59f1bb4 	ldr	r1, [pc, #2996]	; 2c10 <__cs3_region_zero_size_ram+0xbc0>
    2058:	05dd3083 	ldrbeq	r3, [sp, #131]	; 0x83
    205c:	15cd3083 	strbne	r3, [sp, #131]	; 0x83
    2060:	e3580047 	cmp	r8, #71	; 0x47
    2064:	e3a04003 	mov	r4, #3
    2068:	e3a06000 	mov	r6, #0
    206c:	d1a01002 	movle	r1, r2
    2070:	e3c77080 	bic	r7, r7, #128	; 0x80
    2074:	e58d4020 	str	r4, [sp, #32]
    2078:	e58d6040 	str	r6, [sp, #64]	; 0x40
    207c:	e58d104c 	str	r1, [sp, #76]	; 0x4c
    2080:	e58d7018 	str	r7, [sp, #24]
    2084:	e58d4038 	str	r4, [sp, #56]	; 0x38
    2088:	e58d6060 	str	r6, [sp, #96]	; 0x60
    208c:	eaffff84 	b	1ea4 <_vfprintf_r+0x610>
    2090:	e59d6018 	ldr	r6, [sp, #24]
    2094:	e3866008 	orr	r6, r6, #8
    2098:	e58d6018 	str	r6, [sp, #24]
    209c:	e5d38000 	ldrb	r8, [r3]
    20a0:	eafffe5e 	b	1a20 <_vfprintf_r+0x18c>
    20a4:	e59d6018 	ldr	r6, [sp, #24]
    20a8:	e3866010 	orr	r6, r6, #16
    20ac:	e58d6018 	str	r6, [sp, #24]
    20b0:	e59d7018 	ldr	r7, [sp, #24]
    20b4:	e58d3028 	str	r3, [sp, #40]	; 0x28
    20b8:	e2173020 	ands	r3, r7, #32
    20bc:	0a000074 	beq	2294 <__cs3_region_zero_size_ram+0x244>
    20c0:	e59db03c 	ldr	r11, [sp, #60]	; 0x3c
    20c4:	e28b3007 	add	r3, r11, #7
    20c8:	e3c33007 	bic	r3, r3, #7
    20cc:	e89300c0 	ldm	r3, {r6, r7}
    20d0:	e2833008 	add	r3, r3, #8
    20d4:	e196c007 	orrs	r12, r6, r7
    20d8:	e58d303c 	str	r3, [sp, #60]	; 0x3c
    20dc:	03a02000 	moveq	r2, #0
    20e0:	13a02001 	movne	r2, #1
    20e4:	e3a03000 	mov	r3, #0
    20e8:	e3a01000 	mov	r1, #0
    20ec:	e5cd1083 	strb	r1, [sp, #131]	; 0x83
    20f0:	eaffff41 	b	1dfc <_vfprintf_r+0x568>
    20f4:	e59d6018 	ldr	r6, [sp, #24]
    20f8:	e3866010 	orr	r6, r6, #16
    20fc:	e58d6018 	str	r6, [sp, #24]
    2100:	e59d7018 	ldr	r7, [sp, #24]
    2104:	e3170020 	tst	r7, #32
    2108:	e58d3028 	str	r3, [sp, #40]	; 0x28
    210c:	0a000095 	beq	2368 <__cs3_region_zero_size_ram+0x318>
    2110:	e59db03c 	ldr	r11, [sp, #60]	; 0x3c
    2114:	e28b3007 	add	r3, r11, #7
    2118:	e3c33007 	bic	r3, r3, #7
    211c:	e89300c0 	ldm	r3, {r6, r7}
    2120:	e2833008 	add	r3, r3, #8
    2124:	e196c007 	orrs	r12, r6, r7
    2128:	e58d303c 	str	r3, [sp, #60]	; 0x3c
    212c:	03a02000 	moveq	r2, #0
    2130:	13a02001 	movne	r2, #1
    2134:	e3a03001 	mov	r3, #1
    2138:	eaffffea 	b	20e8 <__cs3_region_zero_size_ram+0x98>
    213c:	e59db018 	ldr	r11, [sp, #24]
    2140:	e59f7acc 	ldr	r7, [pc, #2764]	; 2c14 <__cs3_region_zero_size_ram+0xbc4>
    2144:	e31b0020 	tst	r11, #32
    2148:	e58d3028 	str	r3, [sp, #40]	; 0x28
    214c:	e58d7074 	str	r7, [sp, #116]	; 0x74
    2150:	0a000098 	beq	23b8 <__cs3_region_zero_size_ram+0x368>
    2154:	e59dc03c 	ldr	r12, [sp, #60]	; 0x3c
    2158:	e28c3007 	add	r3, r12, #7
    215c:	e3c33007 	bic	r3, r3, #7
    2160:	e2836008 	add	r6, r3, #8
    2164:	e58d603c 	str	r6, [sp, #60]	; 0x3c
    2168:	e89300c0 	ldm	r3, {r6, r7}
    216c:	e59db018 	ldr	r11, [sp, #24]
    2170:	e31b0001 	tst	r11, #1
    2174:	1a0002f2 	bne	2d44 <__cs3_region_zero_size_ram+0xcf4>
    2178:	e196c007 	orrs	r12, r6, r7
    217c:	03a02000 	moveq	r2, #0
    2180:	13a02001 	movne	r2, #1
    2184:	e3a03002 	mov	r3, #2
    2188:	eaffffd6 	b	20e8 <__cs3_region_zero_size_ram+0x98>
    218c:	e59d6018 	ldr	r6, [sp, #24]
    2190:	e3866020 	orr	r6, r6, #32
    2194:	e58d6018 	str	r6, [sp, #24]
    2198:	e5d38000 	ldrb	r8, [r3]
    219c:	eafffe1f 	b	1a20 <_vfprintf_r+0x18c>
    21a0:	e3a06000 	mov	r6, #0
    21a4:	e5cd6083 	strb	r6, [sp, #131]	; 0x83
    21a8:	e59d703c 	ldr	r7, [sp, #60]	; 0x3c
    21ac:	e5977000 	ldr	r7, [r7]
    21b0:	e59db03c 	ldr	r11, [sp, #60]	; 0x3c
    21b4:	e1570006 	cmp	r7, r6
    21b8:	e58d704c 	str	r7, [sp, #76]	; 0x4c
    21bc:	e58d3028 	str	r3, [sp, #40]	; 0x28
    21c0:	e28b7004 	add	r7, r11, #4
    21c4:	0a000536 	beq	36a4 <__cs3_region_zero_size_ram+0x1654>
    21c8:	e3540000 	cmp	r4, #0
    21cc:	e59d004c 	ldr	r0, [sp, #76]	; 0x4c
    21d0:	ba000513 	blt	3624 <__cs3_region_zero_size_ram+0x15d4>
    21d4:	e1a01006 	mov	r1, r6
    21d8:	e1a02004 	mov	r2, r4
    21dc:	eb001328 	bl	6e84 <memchr>
    21e0:	e3500000 	cmp	r0, #0
    21e4:	0a000584 	beq	37fc <__cs3_region_zero_size_ram+0x17ac>
    21e8:	e59dc04c 	ldr	r12, [sp, #76]	; 0x4c
    21ec:	e06c0000 	rsb	r0, r12, r0
    21f0:	e1500004 	cmp	r0, r4
    21f4:	e58d0038 	str	r0, [sp, #56]	; 0x38
    21f8:	e58d6040 	str	r6, [sp, #64]	; 0x40
    21fc:	da00049f 	ble	3480 <__cs3_region_zero_size_ram+0x1430>
    2200:	e58d703c 	str	r7, [sp, #60]	; 0x3c
    2204:	e59d7040 	ldr	r7, [sp, #64]	; 0x40
    2208:	e1c46fc4 	bic	r6, r4, r4, asr #31
    220c:	e58d6020 	str	r6, [sp, #32]
    2210:	e5dd3083 	ldrb	r3, [sp, #131]	; 0x83
    2214:	e58d4038 	str	r4, [sp, #56]	; 0x38
    2218:	e58d7060 	str	r7, [sp, #96]	; 0x60
    221c:	eaffff20 	b	1ea4 <_vfprintf_r+0x610>
    2220:	e5d38000 	ldrb	r8, [r3]
    2224:	e358006c 	cmp	r8, #108	; 0x6c
    2228:	059db018 	ldreq	r11, [sp, #24]
    222c:	159dc018 	ldrne	r12, [sp, #24]
    2230:	e1a00003 	mov	r0, r3
    2234:	038bb020 	orreq	r11, r11, #32
    2238:	138cc010 	orrne	r12, r12, #16
    223c:	02833001 	addeq	r3, r3, #1
    2240:	058db018 	streq	r11, [sp, #24]
    2244:	05d08001 	ldrbeq	r8, [r0, #1]
    2248:	158dc018 	strne	r12, [sp, #24]
    224c:	eafffdf3 	b	1a20 <_vfprintf_r+0x18c>
    2250:	e59d4018 	ldr	r4, [sp, #24]
    2254:	e3140020 	tst	r4, #32
    2258:	e58d3028 	str	r3, [sp, #40]	; 0x28
    225c:	0a000403 	beq	3270 <__cs3_region_zero_size_ram+0x1220>
    2260:	e59d603c 	ldr	r6, [sp, #60]	; 0x3c
    2264:	e59d2034 	ldr	r2, [sp, #52]	; 0x34
    2268:	e5963000 	ldr	r3, [r6]
    226c:	e1a01fc2 	asr	r1, r2, #31
    2270:	e2866004 	add	r6, r6, #4
    2274:	e5832000 	str	r2, [r3]
    2278:	e5831004 	str	r1, [r3, #4]
    227c:	e58d603c 	str	r6, [sp, #60]	; 0x3c
    2280:	eafffdbb 	b	1974 <_vfprintf_r+0xe0>
    2284:	e59d7018 	ldr	r7, [sp, #24]
    2288:	e58d3028 	str	r3, [sp, #40]	; 0x28
    228c:	e2173020 	ands	r3, r7, #32
    2290:	1affff8a 	bne	20c0 <__cs3_region_zero_size_ram+0x70>
    2294:	e59d6018 	ldr	r6, [sp, #24]
    2298:	e2161010 	ands	r1, r6, #16
    229c:	0a00041e 	beq	331c <__cs3_region_zero_size_ram+0x12cc>
    22a0:	e59d703c 	ldr	r7, [sp, #60]	; 0x3c
    22a4:	e59db03c 	ldr	r11, [sp, #60]	; 0x3c
    22a8:	e5972000 	ldr	r2, [r7]
    22ac:	e3a07000 	mov	r7, #0
    22b0:	e1a06002 	mov	r6, r2
    22b4:	e28bb004 	add	r11, r11, #4
    22b8:	e0522007 	subs	r2, r2, r7
    22bc:	13a02001 	movne	r2, #1
    22c0:	e58db03c 	str	r11, [sp, #60]	; 0x3c
    22c4:	eaffff87 	b	20e8 <__cs3_region_zero_size_ram+0x98>
    22c8:	e3580000 	cmp	r8, #0
    22cc:	e58d3028 	str	r3, [sp, #40]	; 0x28
    22d0:	0a000461 	beq	345c <__cs3_region_zero_size_ram+0x140c>
    22d4:	e3a0c001 	mov	r12, #1
    22d8:	e3a03000 	mov	r3, #0
    22dc:	e28d40b0 	add	r4, sp, #176	; 0xb0
    22e0:	e58dc020 	str	r12, [sp, #32]
    22e4:	e5cd80b0 	strb	r8, [sp, #176]	; 0xb0
    22e8:	e5cd3083 	strb	r3, [sp, #131]	; 0x83
    22ec:	e58dc038 	str	r12, [sp, #56]	; 0x38
    22f0:	e58d404c 	str	r4, [sp, #76]	; 0x4c
    22f4:	e3a04000 	mov	r4, #0
    22f8:	e58d4040 	str	r4, [sp, #64]	; 0x40
    22fc:	e58d4060 	str	r4, [sp, #96]	; 0x60
    2300:	eafffeec 	b	1eb8 <_vfprintf_r+0x624>
    2304:	e5dd0083 	ldrb	r0, [sp, #131]	; 0x83
    2308:	e3500000 	cmp	r0, #0
    230c:	1a00036e 	bne	30cc <__cs3_region_zero_size_ram+0x107c>
    2310:	e5cd1083 	strb	r1, [sp, #131]	; 0x83
    2314:	e5d38000 	ldrb	r8, [r3]
    2318:	eafffdc0 	b	1a20 <_vfprintf_r+0x18c>
    231c:	e59d7018 	ldr	r7, [sp, #24]
    2320:	e3877001 	orr	r7, r7, #1
    2324:	e58d7018 	str	r7, [sp, #24]
    2328:	e5d38000 	ldrb	r8, [r3]
    232c:	eafffdbb 	b	1a20 <_vfprintf_r+0x18c>
    2330:	e59db03c 	ldr	r11, [sp, #60]	; 0x3c
    2334:	e59bb000 	ldr	r11, [r11]
    2338:	e59dc03c 	ldr	r12, [sp, #60]	; 0x3c
    233c:	e35b0000 	cmp	r11, #0
    2340:	e58db030 	str	r11, [sp, #48]	; 0x30
    2344:	e28c0004 	add	r0, r12, #4
    2348:	bafffe12 	blt	1b98 <_vfprintf_r+0x304>
    234c:	e5d38000 	ldrb	r8, [r3]
    2350:	e58d003c 	str	r0, [sp, #60]	; 0x3c
    2354:	eafffdb1 	b	1a20 <_vfprintf_r+0x18c>
    2358:	e59d7018 	ldr	r7, [sp, #24]
    235c:	e3170020 	tst	r7, #32
    2360:	e58d3028 	str	r3, [sp, #40]	; 0x28
    2364:	1affff69 	bne	2110 <__cs3_region_zero_size_ram+0xc0>
    2368:	e59d6018 	ldr	r6, [sp, #24]
    236c:	e3160010 	tst	r6, #16
    2370:	0a0003e3 	beq	3304 <__cs3_region_zero_size_ram+0x12b4>
    2374:	e59d703c 	ldr	r7, [sp, #60]	; 0x3c
    2378:	e5972000 	ldr	r2, [r7]
    237c:	e59db03c 	ldr	r11, [sp, #60]	; 0x3c
    2380:	e3a07000 	mov	r7, #0
    2384:	e1a06002 	mov	r6, r2
    2388:	e28bb004 	add	r11, r11, #4
    238c:	e0522007 	subs	r2, r2, r7
    2390:	13a02001 	movne	r2, #1
    2394:	e58db03c 	str	r11, [sp, #60]	; 0x3c
    2398:	e3a03001 	mov	r3, #1
    239c:	eaffff51 	b	20e8 <__cs3_region_zero_size_ram+0x98>
    23a0:	e59db018 	ldr	r11, [sp, #24]
    23a4:	e59f686c 	ldr	r6, [pc, #2156]	; 2c18 <__cs3_region_zero_size_ram+0xbc8>
    23a8:	e31b0020 	tst	r11, #32
    23ac:	e58d3028 	str	r3, [sp, #40]	; 0x28
    23b0:	e58d6074 	str	r6, [sp, #116]	; 0x74
    23b4:	1affff66 	bne	2154 <__cs3_region_zero_size_ram+0x104>
    23b8:	e59d7018 	ldr	r7, [sp, #24]
    23bc:	e3170010 	tst	r7, #16
    23c0:	0a0003c4 	beq	32d8 <__cs3_region_zero_size_ram+0x1288>
    23c4:	e59db03c 	ldr	r11, [sp, #60]	; 0x3c
    23c8:	e59b3000 	ldr	r3, [r11]
    23cc:	e28bb004 	add	r11, r11, #4
    23d0:	e1a06003 	mov	r6, r3
    23d4:	e3a07000 	mov	r7, #0
    23d8:	e58db03c 	str	r11, [sp, #60]	; 0x3c
    23dc:	eaffff62 	b	216c <__cs3_region_zero_size_ram+0x11c>
    23e0:	e59d7018 	ldr	r7, [sp, #24]
    23e4:	e3170020 	tst	r7, #32
    23e8:	e58d3028 	str	r3, [sp, #40]	; 0x28
    23ec:	1afffe73 	bne	1dc0 <_vfprintf_r+0x52c>
    23f0:	e59dc018 	ldr	r12, [sp, #24]
    23f4:	e31c0010 	tst	r12, #16
    23f8:	0a0003b0 	beq	32c0 <__cs3_region_zero_size_ram+0x1270>
    23fc:	e59d603c 	ldr	r6, [sp, #60]	; 0x3c
    2400:	e5963000 	ldr	r3, [r6]
    2404:	e59db03c 	ldr	r11, [sp, #60]	; 0x3c
    2408:	e1a07fc3 	asr	r7, r3, #31
    240c:	e28bb004 	add	r11, r11, #4
    2410:	e1a06003 	mov	r6, r3
    2414:	e1a02003 	mov	r2, r3
    2418:	e58db03c 	str	r11, [sp, #60]	; 0x3c
    241c:	e1a03007 	mov	r3, r7
    2420:	eafffe6e 	b	1de0 <_vfprintf_r+0x54c>
    2424:	e59d7018 	ldr	r7, [sp, #24]
    2428:	e3877040 	orr	r7, r7, #64	; 0x40
    242c:	e58d7018 	str	r7, [sp, #24]
    2430:	e5d38000 	ldrb	r8, [r3]
    2434:	eafffd79 	b	1a20 <_vfprintf_r+0x18c>
    2438:	e58d3028 	str	r3, [sp, #40]	; 0x28
    243c:	e59d303c 	ldr	r3, [sp, #60]	; 0x3c
    2440:	e59db03c 	ldr	r11, [sp, #60]	; 0x3c
    2444:	e5933000 	ldr	r3, [r3]
    2448:	e3a07001 	mov	r7, #1
    244c:	e28bb004 	add	r11, r11, #4
    2450:	e5cd30b0 	strb	r3, [sp, #176]	; 0xb0
    2454:	e28dc0b0 	add	r12, sp, #176	; 0xb0
    2458:	e3a03000 	mov	r3, #0
    245c:	e58d7020 	str	r7, [sp, #32]
    2460:	e58db03c 	str	r11, [sp, #60]	; 0x3c
    2464:	e5cd3083 	strb	r3, [sp, #131]	; 0x83
    2468:	e58d7038 	str	r7, [sp, #56]	; 0x38
    246c:	e58dc04c 	str	r12, [sp, #76]	; 0x4c
    2470:	eaffff9f 	b	22f4 <__cs3_region_zero_size_ram+0x2a4>
    2474:	e59dc018 	ldr	r12, [sp, #24]
    2478:	e58d3028 	str	r3, [sp, #40]	; 0x28
    247c:	e59d303c 	ldr	r3, [sp, #60]	; 0x3c
    2480:	e38cc002 	orr	r12, r12, #2
    2484:	e5932000 	ldr	r2, [r3]
    2488:	e58dc018 	str	r12, [sp, #24]
    248c:	e3a07000 	mov	r7, #0
    2490:	e59fc780 	ldr	r12, [pc, #1920]	; 2c18 <__cs3_region_zero_size_ram+0xbc8>
    2494:	e283b004 	add	r11, r3, #4
    2498:	e3a08078 	mov	r8, #120	; 0x78
    249c:	e3a03030 	mov	r3, #48	; 0x30
    24a0:	e1a06002 	mov	r6, r2
    24a4:	e0522007 	subs	r2, r2, r7
    24a8:	e5cd3084 	strb	r3, [sp, #132]	; 0x84
    24ac:	e58db03c 	str	r11, [sp, #60]	; 0x3c
    24b0:	e5cd8085 	strb	r8, [sp, #133]	; 0x85
    24b4:	13a02001 	movne	r2, #1
    24b8:	e58dc074 	str	r12, [sp, #116]	; 0x74
    24bc:	e3a03002 	mov	r3, #2
    24c0:	eaffff08 	b	20e8 <__cs3_region_zero_size_ram+0x98>
    24c4:	e59d60ac 	ldr	r6, [sp, #172]	; 0xac
    24c8:	e5dd3083 	ldrb	r3, [sp, #131]	; 0x83
    24cc:	e3530000 	cmp	r3, #0
    24d0:	0a00000c 	beq	2508 <__cs3_region_zero_size_ram+0x4b8>
    24d4:	e59d40a8 	ldr	r4, [sp, #168]	; 0xa8
    24d8:	e28d3083 	add	r3, sp, #131	; 0x83
    24dc:	e2844001 	add	r4, r4, #1
    24e0:	e5853000 	str	r3, [r5]
    24e4:	e2866001 	add	r6, r6, #1
    24e8:	e3540007 	cmp	r4, #7
    24ec:	e3a03001 	mov	r3, #1
    24f0:	e5853004 	str	r3, [r5, #4]
    24f4:	e28d7090 	add	r7, sp, #144	; 0x90
    24f8:	e58d60ac 	str	r6, [sp, #172]	; 0xac
    24fc:	e58d40a8 	str	r4, [sp, #168]	; 0xa8
    2500:	d2855008 	addle	r5, r5, #8
    2504:	ca000179 	bgt	2af0 <__cs3_region_zero_size_ram+0xaa0>
    2508:	e59dc048 	ldr	r12, [sp, #72]	; 0x48
    250c:	e35c0000 	cmp	r12, #0
    2510:	0a00000b 	beq	2544 <__cs3_region_zero_size_ram+0x4f4>
    2514:	e59d40a8 	ldr	r4, [sp, #168]	; 0xa8
    2518:	e28d3084 	add	r3, sp, #132	; 0x84
    251c:	e2844001 	add	r4, r4, #1
    2520:	e5853000 	str	r3, [r5]
    2524:	e2866002 	add	r6, r6, #2
    2528:	e3540007 	cmp	r4, #7
    252c:	e3a03002 	mov	r3, #2
    2530:	e5853004 	str	r3, [r5, #4]
    2534:	e58d60ac 	str	r6, [sp, #172]	; 0xac
    2538:	e58d40a8 	str	r4, [sp, #168]	; 0xa8
    253c:	d2855008 	addle	r5, r5, #8
    2540:	ca000161 	bgt	2acc <__cs3_region_zero_size_ram+0xa7c>
    2544:	e59d4050 	ldr	r4, [sp, #80]	; 0x50
    2548:	e3540080 	cmp	r4, #128	; 0x80
    254c:	0a0000e3 	beq	28e0 <__cs3_region_zero_size_ram+0x890>
    2550:	e59d4040 	ldr	r4, [sp, #64]	; 0x40
    2554:	e59d7038 	ldr	r7, [sp, #56]	; 0x38
    2558:	e0679004 	rsb	r9, r7, r4
    255c:	e3590000 	cmp	r9, #0
    2560:	da000031 	ble	262c <__cs3_region_zero_size_ram+0x5dc>
    2564:	e3590010 	cmp	r9, #16
    2568:	e59d40a8 	ldr	r4, [sp, #168]	; 0xa8
    256c:	e59f76ac 	ldr	r7, [pc, #1708]	; 2c20 <__cs3_region_zero_size_ram+0xbd0>
    2570:	da00001d 	ble	25ec <__cs3_region_zero_size_ram+0x59c>
    2574:	e28da0a4 	add	r10, sp, #164	; 0xa4
    2578:	e58d8040 	str	r8, [sp, #64]	; 0x40
    257c:	e3a0b010 	mov	r11, #16
    2580:	e1a0800a 	mov	r8, r10
    2584:	e59da02c 	ldr	r10, [sp, #44]	; 0x2c
    2588:	ea000002 	b	2598 <__cs3_region_zero_size_ram+0x548>
    258c:	e2499010 	sub	r9, r9, #16
    2590:	e3590010 	cmp	r9, #16
    2594:	da000013 	ble	25e8 <__cs3_region_zero_size_ram+0x598>
    2598:	e2844001 	add	r4, r4, #1
    259c:	e3540007 	cmp	r4, #7
    25a0:	e2866010 	add	r6, r6, #16
    25a4:	e8850880 	stm	r5, {r7, r11}
    25a8:	e58d60ac 	str	r6, [sp, #172]	; 0xac
    25ac:	e58d40a8 	str	r4, [sp, #168]	; 0xa8
    25b0:	d2855008 	addle	r5, r5, #8
    25b4:	dafffff4 	ble	258c <__cs3_region_zero_size_ram+0x53c>
    25b8:	e1a0000a 	mov	r0, r10
    25bc:	e59d101c 	ldr	r1, [sp, #28]
    25c0:	e1a02008 	mov	r2, r8
    25c4:	eb001927 	bl	8a68 <__sprint_r>
    25c8:	e3500000 	cmp	r0, #0
    25cc:	1afffd95 	bne	1c28 <_vfprintf_r+0x394>
    25d0:	e2499010 	sub	r9, r9, #16
    25d4:	e28d40a8 	add	r4, sp, #168	; 0xa8
    25d8:	e3590010 	cmp	r9, #16
    25dc:	e8940050 	ldm	r4, {r4, r6}
    25e0:	e28d5d05 	add	r5, sp, #320	; 0x140
    25e4:	caffffeb 	bgt	2598 <__cs3_region_zero_size_ram+0x548>
    25e8:	e59d8040 	ldr	r8, [sp, #64]	; 0x40
    25ec:	e2844001 	add	r4, r4, #1
    25f0:	e0866009 	add	r6, r6, r9
    25f4:	e3540007 	cmp	r4, #7
    25f8:	e8850280 	stm	r5, {r7, r9}
    25fc:	e58d60ac 	str	r6, [sp, #172]	; 0xac
    2600:	e58d40a8 	str	r4, [sp, #168]	; 0xa8
    2604:	d2855008 	addle	r5, r5, #8
    2608:	da000007 	ble	262c <__cs3_region_zero_size_ram+0x5dc>
    260c:	e59d002c 	ldr	r0, [sp, #44]	; 0x2c
    2610:	e59d101c 	ldr	r1, [sp, #28]
    2614:	e28d20a4 	add	r2, sp, #164	; 0xa4
    2618:	eb001912 	bl	8a68 <__sprint_r>
    261c:	e3500000 	cmp	r0, #0
    2620:	1afffd80 	bne	1c28 <_vfprintf_r+0x394>
    2624:	e59d60ac 	ldr	r6, [sp, #172]	; 0xac
    2628:	e28d5d05 	add	r5, sp, #320	; 0x140
    262c:	e59d4018 	ldr	r4, [sp, #24]
    2630:	e3140c01 	tst	r4, #256	; 0x100
    2634:	1a000052 	bne	2784 <__cs3_region_zero_size_ram+0x734>
    2638:	e59d40a8 	ldr	r4, [sp, #168]	; 0xa8
    263c:	e59d7038 	ldr	r7, [sp, #56]	; 0x38
    2640:	e2844001 	add	r4, r4, #1
    2644:	e59dc04c 	ldr	r12, [sp, #76]	; 0x4c
    2648:	e0866007 	add	r6, r6, r7
    264c:	e3540007 	cmp	r4, #7
    2650:	e585c000 	str	r12, [r5]
    2654:	e5857004 	str	r7, [r5, #4]
    2658:	e58d60ac 	str	r6, [sp, #172]	; 0xac
    265c:	e58d40a8 	str	r4, [sp, #168]	; 0xa8
    2660:	ca00010c 	bgt	2a98 <__cs3_region_zero_size_ram+0xa48>
    2664:	e2855008 	add	r5, r5, #8
    2668:	e59d4018 	ldr	r4, [sp, #24]
    266c:	e3140004 	tst	r4, #4
    2670:	0a000036 	beq	2750 <__cs3_region_zero_size_ram+0x700>
    2674:	e59d7030 	ldr	r7, [sp, #48]	; 0x30
    2678:	e59db020 	ldr	r11, [sp, #32]
    267c:	e06b8007 	rsb	r8, r11, r7
    2680:	e3580000 	cmp	r8, #0
    2684:	da000031 	ble	2750 <__cs3_region_zero_size_ram+0x700>
    2688:	e3580010 	cmp	r8, #16
    268c:	e59d40a8 	ldr	r4, [sp, #168]	; 0xa8
    2690:	e59f9570 	ldr	r9, [pc, #1392]	; 2c08 <__cs3_region_zero_size_ram+0xbb8>
    2694:	da00001e 	ble	2714 <__cs3_region_zero_size_ram+0x6c4>
    2698:	e28d70a4 	add	r7, sp, #164	; 0xa4
    269c:	e1a03007 	mov	r3, r7
    26a0:	e3a0a010 	mov	r10, #16
    26a4:	e1a07009 	mov	r7, r9
    26a8:	e59db02c 	ldr	r11, [sp, #44]	; 0x2c
    26ac:	e1a09003 	mov	r9, r3
    26b0:	ea000002 	b	26c0 <__cs3_region_zero_size_ram+0x670>
    26b4:	e2488010 	sub	r8, r8, #16
    26b8:	e3580010 	cmp	r8, #16
    26bc:	da000013 	ble	2710 <__cs3_region_zero_size_ram+0x6c0>
    26c0:	e2844001 	add	r4, r4, #1
    26c4:	e3540007 	cmp	r4, #7
    26c8:	e2866010 	add	r6, r6, #16
    26cc:	e8850480 	stm	r5, {r7, r10}
    26d0:	e58d60ac 	str	r6, [sp, #172]	; 0xac
    26d4:	e58d40a8 	str	r4, [sp, #168]	; 0xa8
    26d8:	d2855008 	addle	r5, r5, #8
    26dc:	dafffff4 	ble	26b4 <__cs3_region_zero_size_ram+0x664>
    26e0:	e1a0000b 	mov	r0, r11
    26e4:	e59d101c 	ldr	r1, [sp, #28]
    26e8:	e1a02009 	mov	r2, r9
    26ec:	eb0018dd 	bl	8a68 <__sprint_r>
    26f0:	e3500000 	cmp	r0, #0
    26f4:	1afffd4b 	bne	1c28 <_vfprintf_r+0x394>
    26f8:	e2488010 	sub	r8, r8, #16
    26fc:	e28d40a8 	add	r4, sp, #168	; 0xa8
    2700:	e3580010 	cmp	r8, #16
    2704:	e8940050 	ldm	r4, {r4, r6}
    2708:	e28d5d05 	add	r5, sp, #320	; 0x140
    270c:	caffffeb 	bgt	26c0 <__cs3_region_zero_size_ram+0x670>
    2710:	e1a09007 	mov	r9, r7
    2714:	e2844001 	add	r4, r4, #1
    2718:	e0886006 	add	r6, r8, r6
    271c:	e3540007 	cmp	r4, #7
    2720:	e5859000 	str	r9, [r5]
    2724:	e5858004 	str	r8, [r5, #4]
    2728:	e58d60ac 	str	r6, [sp, #172]	; 0xac
    272c:	e58d40a8 	str	r4, [sp, #168]	; 0xa8
    2730:	da000006 	ble	2750 <__cs3_region_zero_size_ram+0x700>
    2734:	e59d002c 	ldr	r0, [sp, #44]	; 0x2c
    2738:	e59d101c 	ldr	r1, [sp, #28]
    273c:	e28d20a4 	add	r2, sp, #164	; 0xa4
    2740:	eb0018c8 	bl	8a68 <__sprint_r>
    2744:	e3500000 	cmp	r0, #0
    2748:	1afffd36 	bne	1c28 <_vfprintf_r+0x394>
    274c:	e59d60ac 	ldr	r6, [sp, #172]	; 0xac
    2750:	e59d4034 	ldr	r4, [sp, #52]	; 0x34
    2754:	e59d7020 	ldr	r7, [sp, #32]
    2758:	e59db030 	ldr	r11, [sp, #48]	; 0x30
    275c:	e157000b 	cmp	r7, r11
    2760:	a0844007 	addge	r4, r4, r7
    2764:	b084400b 	addlt	r4, r4, r11
    2768:	e3560000 	cmp	r6, #0
    276c:	e58d4034 	str	r4, [sp, #52]	; 0x34
    2770:	1afffd26 	bne	1c10 <_vfprintf_r+0x37c>
    2774:	e3a03000 	mov	r3, #0
    2778:	e58d30a8 	str	r3, [sp, #168]	; 0xa8
    277c:	e28d5d05 	add	r5, sp, #320	; 0x140
    2780:	eafffc7b 	b	1974 <_vfprintf_r+0xe0>
    2784:	e3580065 	cmp	r8, #101	; 0x65
    2788:	da00008c 	ble	29c0 <__cs3_region_zero_size_ram+0x970>
    278c:	e28d1068 	add	r1, sp, #104	; 0x68
    2790:	e8910003 	ldm	r1, {r0, r1}
    2794:	e3a02000 	mov	r2, #0
    2798:	e3a03000 	mov	r3, #0
    279c:	eb00225f 	bl	b120 <__aeabi_dcmpeq>
    27a0:	e3500000 	cmp	r0, #0
    27a4:	0a0000db 	beq	2b18 <__cs3_region_zero_size_ram+0xac8>
    27a8:	e59d40a8 	ldr	r4, [sp, #168]	; 0xa8
    27ac:	e59f3468 	ldr	r3, [pc, #1128]	; 2c1c <__cs3_region_zero_size_ram+0xbcc>
    27b0:	e2844001 	add	r4, r4, #1
    27b4:	e5853000 	str	r3, [r5]
    27b8:	e2866001 	add	r6, r6, #1
    27bc:	e3540007 	cmp	r4, #7
    27c0:	e3a03001 	mov	r3, #1
    27c4:	e5853004 	str	r3, [r5, #4]
    27c8:	e58d60ac 	str	r6, [sp, #172]	; 0xac
    27cc:	e58d40a8 	str	r4, [sp, #168]	; 0xa8
    27d0:	d2855008 	addle	r5, r5, #8
    27d4:	ca0002de 	bgt	3354 <__cs3_region_zero_size_ram+0x1304>
    27d8:	e59d3088 	ldr	r3, [sp, #136]	; 0x88
    27dc:	e59d7044 	ldr	r7, [sp, #68]	; 0x44
    27e0:	e1530007 	cmp	r3, r7
    27e4:	ba000002 	blt	27f4 <__cs3_region_zero_size_ram+0x7a4>
    27e8:	e59db018 	ldr	r11, [sp, #24]
    27ec:	e31b0001 	tst	r11, #1
    27f0:	0affff9c 	beq	2668 <__cs3_region_zero_size_ram+0x618>
    27f4:	e59d40a8 	ldr	r4, [sp, #168]	; 0xa8
    27f8:	e59dc064 	ldr	r12, [sp, #100]	; 0x64
    27fc:	e2844001 	add	r4, r4, #1
    2800:	e59d7058 	ldr	r7, [sp, #88]	; 0x58
    2804:	e086600c 	add	r6, r6, r12
    2808:	e3540007 	cmp	r4, #7
    280c:	e8851080 	stm	r5, {r7, r12}
    2810:	e58d60ac 	str	r6, [sp, #172]	; 0xac
    2814:	e58d40a8 	str	r4, [sp, #168]	; 0xa8
    2818:	d2855008 	addle	r5, r5, #8
    281c:	ca000362 	bgt	35ac <__cs3_region_zero_size_ram+0x155c>
    2820:	e59dc044 	ldr	r12, [sp, #68]	; 0x44
    2824:	e24ca001 	sub	r10, r12, #1
    2828:	e35a0000 	cmp	r10, #0
    282c:	daffff8d 	ble	2668 <__cs3_region_zero_size_ram+0x618>
    2830:	e35a0010 	cmp	r10, #16
    2834:	e59d40a8 	ldr	r4, [sp, #168]	; 0xa8
    2838:	e59f73e0 	ldr	r7, [pc, #992]	; 2c20 <__cs3_region_zero_size_ram+0xbd0>
    283c:	da00014c 	ble	2d74 <__cs3_region_zero_size_ram+0xd24>
    2840:	e28d80a4 	add	r8, sp, #164	; 0xa4
    2844:	e1a03008 	mov	r3, r8
    2848:	e3a09010 	mov	r9, #16
    284c:	e1a08007 	mov	r8, r7
    2850:	e59db02c 	ldr	r11, [sp, #44]	; 0x2c
    2854:	e1a07003 	mov	r7, r3
    2858:	ea000002 	b	2868 <__cs3_region_zero_size_ram+0x818>
    285c:	e24aa010 	sub	r10, r10, #16
    2860:	e35a0010 	cmp	r10, #16
    2864:	da000141 	ble	2d70 <__cs3_region_zero_size_ram+0xd20>
    2868:	e2844001 	add	r4, r4, #1
    286c:	e3540007 	cmp	r4, #7
    2870:	e2866010 	add	r6, r6, #16
    2874:	e8850300 	stm	r5, {r8, r9}
    2878:	e58d60ac 	str	r6, [sp, #172]	; 0xac
    287c:	e58d40a8 	str	r4, [sp, #168]	; 0xa8
    2880:	d2855008 	addle	r5, r5, #8
    2884:	dafffff4 	ble	285c <__cs3_region_zero_size_ram+0x80c>
    2888:	e1a0000b 	mov	r0, r11
    288c:	e59d101c 	ldr	r1, [sp, #28]
    2890:	e1a02007 	mov	r2, r7
    2894:	eb001873 	bl	8a68 <__sprint_r>
    2898:	e3500000 	cmp	r0, #0
    289c:	1afffce1 	bne	1c28 <_vfprintf_r+0x394>
    28a0:	e28d40a8 	add	r4, sp, #168	; 0xa8
    28a4:	e8940050 	ldm	r4, {r4, r6}
    28a8:	e28d5d05 	add	r5, sp, #320	; 0x140
    28ac:	eaffffea 	b	285c <__cs3_region_zero_size_ram+0x80c>
    28b0:	e3530000 	cmp	r3, #0
    28b4:	1a000080 	bne	2abc <__cs3_region_zero_size_ram+0xa6c>
    28b8:	e59d6018 	ldr	r6, [sp, #24]
    28bc:	e3160001 	tst	r6, #1
    28c0:	0a0000f9 	beq	2cac <__cs3_region_zero_size_ram+0xc5c>
    28c4:	e59d707c 	ldr	r7, [sp, #124]	; 0x7c
    28c8:	e59db05c 	ldr	r11, [sp, #92]	; 0x5c
    28cc:	e3a03030 	mov	r3, #48	; 0x30
    28d0:	e5cd30d7 	strb	r3, [sp, #215]	; 0xd7
    28d4:	e58d7038 	str	r7, [sp, #56]	; 0x38
    28d8:	e58db04c 	str	r11, [sp, #76]	; 0x4c
    28dc:	eafffd68 	b	1e84 <_vfprintf_r+0x5f0>
    28e0:	e59d7030 	ldr	r7, [sp, #48]	; 0x30
    28e4:	e59db020 	ldr	r11, [sp, #32]
    28e8:	e06b9007 	rsb	r9, r11, r7
    28ec:	e3590000 	cmp	r9, #0
    28f0:	daffff16 	ble	2550 <__cs3_region_zero_size_ram+0x500>
    28f4:	e3590010 	cmp	r9, #16
    28f8:	e59d40a8 	ldr	r4, [sp, #168]	; 0xa8
    28fc:	e59f731c 	ldr	r7, [pc, #796]	; 2c20 <__cs3_region_zero_size_ram+0xbd0>
    2900:	da00001d 	ble	297c <__cs3_region_zero_size_ram+0x92c>
    2904:	e28da0a4 	add	r10, sp, #164	; 0xa4
    2908:	e58d8048 	str	r8, [sp, #72]	; 0x48
    290c:	e3a0b010 	mov	r11, #16
    2910:	e1a0800a 	mov	r8, r10
    2914:	e59da02c 	ldr	r10, [sp, #44]	; 0x2c
    2918:	ea000002 	b	2928 <__cs3_region_zero_size_ram+0x8d8>
    291c:	e2499010 	sub	r9, r9, #16
    2920:	e3590010 	cmp	r9, #16
    2924:	da000013 	ble	2978 <__cs3_region_zero_size_ram+0x928>
    2928:	e2844001 	add	r4, r4, #1
    292c:	e3540007 	cmp	r4, #7
    2930:	e2866010 	add	r6, r6, #16
    2934:	e8850880 	stm	r5, {r7, r11}
    2938:	e58d60ac 	str	r6, [sp, #172]	; 0xac
    293c:	e58d40a8 	str	r4, [sp, #168]	; 0xa8
    2940:	d2855008 	addle	r5, r5, #8
    2944:	dafffff4 	ble	291c <__cs3_region_zero_size_ram+0x8cc>
    2948:	e1a0000a 	mov	r0, r10
    294c:	e59d101c 	ldr	r1, [sp, #28]
    2950:	e1a02008 	mov	r2, r8
    2954:	eb001843 	bl	8a68 <__sprint_r>
    2958:	e3500000 	cmp	r0, #0
    295c:	1afffcb1 	bne	1c28 <_vfprintf_r+0x394>
    2960:	e2499010 	sub	r9, r9, #16
    2964:	e28d40a8 	add	r4, sp, #168	; 0xa8
    2968:	e3590010 	cmp	r9, #16
    296c:	e8940050 	ldm	r4, {r4, r6}
    2970:	e28d5d05 	add	r5, sp, #320	; 0x140
    2974:	caffffeb 	bgt	2928 <__cs3_region_zero_size_ram+0x8d8>
    2978:	e59d8048 	ldr	r8, [sp, #72]	; 0x48
    297c:	e2844001 	add	r4, r4, #1
    2980:	e0866009 	add	r6, r6, r9
    2984:	e3540007 	cmp	r4, #7
    2988:	e8850280 	stm	r5, {r7, r9}
    298c:	e58d60ac 	str	r6, [sp, #172]	; 0xac
    2990:	e58d40a8 	str	r4, [sp, #168]	; 0xa8
    2994:	d2855008 	addle	r5, r5, #8
    2998:	dafffeec 	ble	2550 <__cs3_region_zero_size_ram+0x500>
    299c:	e59d002c 	ldr	r0, [sp, #44]	; 0x2c
    29a0:	e59d101c 	ldr	r1, [sp, #28]
    29a4:	e28d20a4 	add	r2, sp, #164	; 0xa4
    29a8:	eb00182e 	bl	8a68 <__sprint_r>
    29ac:	e3500000 	cmp	r0, #0
    29b0:	1afffc9c 	bne	1c28 <_vfprintf_r+0x394>
    29b4:	e59d60ac 	ldr	r6, [sp, #172]	; 0xac
    29b8:	e28d5d05 	add	r5, sp, #320	; 0x140
    29bc:	eafffee3 	b	2550 <__cs3_region_zero_size_ram+0x500>
    29c0:	e59d4044 	ldr	r4, [sp, #68]	; 0x44
    29c4:	e3540001 	cmp	r4, #1
    29c8:	e59d40a8 	ldr	r4, [sp, #168]	; 0xa8
    29cc:	e2866001 	add	r6, r6, #1
    29d0:	e2844001 	add	r4, r4, #1
    29d4:	da000156 	ble	2f34 <__cs3_region_zero_size_ram+0xee4>
    29d8:	e59dc04c 	ldr	r12, [sp, #76]	; 0x4c
    29dc:	e3540007 	cmp	r4, #7
    29e0:	e3a03001 	mov	r3, #1
    29e4:	e585c000 	str	r12, [r5]
    29e8:	e5853004 	str	r3, [r5, #4]
    29ec:	e58d60ac 	str	r6, [sp, #172]	; 0xac
    29f0:	e58d40a8 	str	r4, [sp, #168]	; 0xa8
    29f4:	d2855008 	addle	r5, r5, #8
    29f8:	ca000160 	bgt	2f80 <__cs3_region_zero_size_ram+0xf30>
    29fc:	e59d7064 	ldr	r7, [sp, #100]	; 0x64
    2a00:	e2844001 	add	r4, r4, #1
    2a04:	e59db058 	ldr	r11, [sp, #88]	; 0x58
    2a08:	e0866007 	add	r6, r6, r7
    2a0c:	e3540007 	cmp	r4, #7
    2a10:	e585b000 	str	r11, [r5]
    2a14:	e5857004 	str	r7, [r5, #4]
    2a18:	e58d60ac 	str	r6, [sp, #172]	; 0xac
    2a1c:	e58d40a8 	str	r4, [sp, #168]	; 0xa8
    2a20:	d2855008 	addle	r5, r5, #8
    2a24:	ca00015f 	bgt	2fa8 <__cs3_region_zero_size_ram+0xf58>
    2a28:	e28d1068 	add	r1, sp, #104	; 0x68
    2a2c:	e8910003 	ldm	r1, {r0, r1}
    2a30:	e3a02000 	mov	r2, #0
    2a34:	e3a03000 	mov	r3, #0
    2a38:	eb0021b8 	bl	b120 <__aeabi_dcmpeq>
    2a3c:	e3500000 	cmp	r0, #0
    2a40:	e59d7044 	ldr	r7, [sp, #68]	; 0x44
    2a44:	1a00009c 	bne	2cbc <__cs3_region_zero_size_ram+0xc6c>
    2a48:	e59dc04c 	ldr	r12, [sp, #76]	; 0x4c
    2a4c:	e2473001 	sub	r3, r7, #1
    2a50:	e2844001 	add	r4, r4, #1
    2a54:	e28c2001 	add	r2, r12, #1
    2a58:	e0866003 	add	r6, r6, r3
    2a5c:	e3540007 	cmp	r4, #7
    2a60:	e885000c 	stm	r5, {r2, r3}
    2a64:	e58d60ac 	str	r6, [sp, #172]	; 0xac
    2a68:	e58d40a8 	str	r4, [sp, #168]	; 0xa8
    2a6c:	ca00015f 	bgt	2ff0 <__cs3_region_zero_size_ram+0xfa0>
    2a70:	e2855008 	add	r5, r5, #8
    2a74:	e59dc070 	ldr	r12, [sp, #112]	; 0x70
    2a78:	e2844001 	add	r4, r4, #1
    2a7c:	e086600c 	add	r6, r6, r12
    2a80:	e28d3094 	add	r3, sp, #148	; 0x94
    2a84:	e3540007 	cmp	r4, #7
    2a88:	e8851008 	stm	r5, {r3, r12}
    2a8c:	e58d60ac 	str	r6, [sp, #172]	; 0xac
    2a90:	e58d40a8 	str	r4, [sp, #168]	; 0xa8
    2a94:	dafffef2 	ble	2664 <__cs3_region_zero_size_ram+0x614>
    2a98:	e59d002c 	ldr	r0, [sp, #44]	; 0x2c
    2a9c:	e59d101c 	ldr	r1, [sp, #28]
    2aa0:	e28d20a4 	add	r2, sp, #164	; 0xa4
    2aa4:	eb0017ef 	bl	8a68 <__sprint_r>
    2aa8:	e3500000 	cmp	r0, #0
    2aac:	1afffc5d 	bne	1c28 <_vfprintf_r+0x394>
    2ab0:	e28d5d05 	add	r5, sp, #320	; 0x140
    2ab4:	e59d60ac 	ldr	r6, [sp, #172]	; 0xac
    2ab8:	eafffeea 	b	2668 <__cs3_region_zero_size_ram+0x618>
    2abc:	e59dc054 	ldr	r12, [sp, #84]	; 0x54
    2ac0:	e58d2038 	str	r2, [sp, #56]	; 0x38
    2ac4:	e58dc04c 	str	r12, [sp, #76]	; 0x4c
    2ac8:	eafffced 	b	1e84 <_vfprintf_r+0x5f0>
    2acc:	e59d002c 	ldr	r0, [sp, #44]	; 0x2c
    2ad0:	e59d101c 	ldr	r1, [sp, #28]
    2ad4:	e28d20a4 	add	r2, sp, #164	; 0xa4
    2ad8:	eb0017e2 	bl	8a68 <__sprint_r>
    2adc:	e3500000 	cmp	r0, #0
    2ae0:	1afffc50 	bne	1c28 <_vfprintf_r+0x394>
    2ae4:	e59d60ac 	ldr	r6, [sp, #172]	; 0xac
    2ae8:	e28d5d05 	add	r5, sp, #320	; 0x140
    2aec:	eafffe94 	b	2544 <__cs3_region_zero_size_ram+0x4f4>
    2af0:	e59d002c 	ldr	r0, [sp, #44]	; 0x2c
    2af4:	e59d101c 	ldr	r1, [sp, #28]
    2af8:	e28d20a4 	add	r2, sp, #164	; 0xa4
    2afc:	eb0017d9 	bl	8a68 <__sprint_r>
    2b00:	e3500000 	cmp	r0, #0
    2b04:	e28db0b0 	add	r11, sp, #176	; 0xb0
    2b08:	1afffc46 	bne	1c28 <_vfprintf_r+0x394>
    2b0c:	e59d60ac 	ldr	r6, [sp, #172]	; 0xac
    2b10:	e28d5d05 	add	r5, sp, #320	; 0x140
    2b14:	eafffe7b 	b	2508 <__cs3_region_zero_size_ram+0x4b8>
    2b18:	e59d8088 	ldr	r8, [sp, #136]	; 0x88
    2b1c:	e3580000 	cmp	r8, #0
    2b20:	da000215 	ble	337c <__cs3_region_zero_size_ram+0x132c>
    2b24:	e59d4060 	ldr	r4, [sp, #96]	; 0x60
    2b28:	e59d7044 	ldr	r7, [sp, #68]	; 0x44
    2b2c:	e59dc04c 	ldr	r12, [sp, #76]	; 0x4c
    2b30:	e1570004 	cmp	r7, r4
    2b34:	a1a07004 	movge	r7, r4
    2b38:	e59d4044 	ldr	r4, [sp, #68]	; 0x44
    2b3c:	e3570000 	cmp	r7, #0
    2b40:	e08cb004 	add	r11, r12, r4
    2b44:	da000009 	ble	2b70 <__cs3_region_zero_size_ram+0xb20>
    2b48:	e59d40a8 	ldr	r4, [sp, #168]	; 0xa8
    2b4c:	e2844001 	add	r4, r4, #1
    2b50:	e0866007 	add	r6, r6, r7
    2b54:	e3540007 	cmp	r4, #7
    2b58:	e585c000 	str	r12, [r5]
    2b5c:	e5857004 	str	r7, [r5, #4]
    2b60:	e58d60ac 	str	r6, [sp, #172]	; 0xac
    2b64:	e58d40a8 	str	r4, [sp, #168]	; 0xa8
    2b68:	d2855008 	addle	r5, r5, #8
    2b6c:	ca0002b5 	bgt	3648 <__cs3_region_zero_size_ram+0x15f8>
    2b70:	e59dc060 	ldr	r12, [sp, #96]	; 0x60
    2b74:	e1c77fc7 	bic	r7, r7, r7, asr #31
    2b78:	e067a00c 	rsb	r10, r7, r12
    2b7c:	e35a0000 	cmp	r10, #0
    2b80:	da000095 	ble	2ddc <__cs3_region_zero_size_ram+0xd8c>
    2b84:	e35a0010 	cmp	r10, #16
    2b88:	e59d40a8 	ldr	r4, [sp, #168]	; 0xa8
    2b8c:	e59f708c 	ldr	r7, [pc, #140]	; 2c20 <__cs3_region_zero_size_ram+0xbd0>
    2b90:	da000081 	ble	2d9c <__cs3_region_zero_size_ram+0xd4c>
    2b94:	e28d80a4 	add	r8, sp, #164	; 0xa4
    2b98:	e58db038 	str	r11, [sp, #56]	; 0x38
    2b9c:	e3a09010 	mov	r9, #16
    2ba0:	e1a0b00a 	mov	r11, r10
    2ba4:	e1a0a008 	mov	r10, r8
    2ba8:	e59d802c 	ldr	r8, [sp, #44]	; 0x2c
    2bac:	ea000002 	b	2bbc <__cs3_region_zero_size_ram+0xb6c>
    2bb0:	e24bb010 	sub	r11, r11, #16
    2bb4:	e35b0010 	cmp	r11, #16
    2bb8:	da000075 	ble	2d94 <__cs3_region_zero_size_ram+0xd44>
    2bbc:	e2844001 	add	r4, r4, #1
    2bc0:	e3540007 	cmp	r4, #7
    2bc4:	e2866010 	add	r6, r6, #16
    2bc8:	e8850280 	stm	r5, {r7, r9}
    2bcc:	e58d60ac 	str	r6, [sp, #172]	; 0xac
    2bd0:	e58d40a8 	str	r4, [sp, #168]	; 0xa8
    2bd4:	d2855008 	addle	r5, r5, #8
    2bd8:	dafffff4 	ble	2bb0 <__cs3_region_zero_size_ram+0xb60>
    2bdc:	e1a00008 	mov	r0, r8
    2be0:	e59d101c 	ldr	r1, [sp, #28]
    2be4:	e1a0200a 	mov	r2, r10
    2be8:	eb00179e 	bl	8a68 <__sprint_r>
    2bec:	e3500000 	cmp	r0, #0
    2bf0:	1afffc0c 	bne	1c28 <_vfprintf_r+0x394>
    2bf4:	e28d40a8 	add	r4, sp, #168	; 0xa8
    2bf8:	e8940050 	ldm	r4, {r4, r6}
    2bfc:	e28d5d05 	add	r5, sp, #320	; 0x140
    2c00:	eaffffea 	b	2bb0 <__cs3_region_zero_size_ram+0xb60>
    2c04:	fffffba4 	.word	0xfffffba4
    2c08:	00016ea0 	.word	0x00016ea0
    2c0c:	00016ec0 	.word	0x00016ec0
    2c10:	00016ec4 	.word	0x00016ec4
    2c14:	00016ed0 	.word	0x00016ed0
    2c18:	00016ee4 	.word	0x00016ee4
    2c1c:	00016f00 	.word	0x00016f00
    2c20:	00016eb0 	.word	0x00016eb0
    2c24:	00016ec8 	.word	0x00016ec8
    2c28:	00016ecc 	.word	0x00016ecc
    2c2c:	00016ef8 	.word	0x00016ef8
    2c30:	66666667 	.word	0x66666667
    2c34:	e59d9074 	ldr	r9, [sp, #116]	; 0x74
    2c38:	e3a0000f 	mov	r0, #15
    2c3c:	e1a0a226 	lsr	r10, r6, #4
    2c40:	e0062000 	and	r2, r6, r0
    2c44:	e18aae07 	orr	r10, r10, r7, lsl #28
    2c48:	e1a03227 	lsr	r3, r7, #4
    2c4c:	e0892002 	add	r2, r9, r2
    2c50:	e1a07003 	mov	r7, r3
    2c54:	e1a0600a 	mov	r6, r10
    2c58:	e5d22000 	ldrb	r2, [r2]
    2c5c:	e196b007 	orrs	r11, r6, r7
    2c60:	e1a0300c 	mov	r3, r12
    2c64:	e5cc2000 	strb	r2, [r12]
    2c68:	e24cc001 	sub	r12, r12, #1
    2c6c:	1afffff2 	bne	2c3c <__cs3_region_zero_size_ram+0xbec>
    2c70:	e59dc054 	ldr	r12, [sp, #84]	; 0x54
    2c74:	e063c00c 	rsb	r12, r3, r12
    2c78:	e58d304c 	str	r3, [sp, #76]	; 0x4c
    2c7c:	e58dc038 	str	r12, [sp, #56]	; 0x38
    2c80:	eafffc7f 	b	1e84 <_vfprintf_r+0x5f0>
    2c84:	e3570000 	cmp	r7, #0
    2c88:	03560009 	cmpeq	r6, #9
    2c8c:	8a0000e1 	bhi	3018 <__cs3_region_zero_size_ram+0xfc8>
    2c90:	e2866030 	add	r6, r6, #48	; 0x30
    2c94:	e5cd60d7 	strb	r6, [sp, #215]	; 0xd7
    2c98:	e59d705c 	ldr	r7, [sp, #92]	; 0x5c
    2c9c:	e59d607c 	ldr	r6, [sp, #124]	; 0x7c
    2ca0:	e58d704c 	str	r7, [sp, #76]	; 0x4c
    2ca4:	e58d6038 	str	r6, [sp, #56]	; 0x38
    2ca8:	eafffc75 	b	1e84 <_vfprintf_r+0x5f0>
    2cac:	e59d6054 	ldr	r6, [sp, #84]	; 0x54
    2cb0:	e58d3038 	str	r3, [sp, #56]	; 0x38
    2cb4:	e58d604c 	str	r6, [sp, #76]	; 0x4c
    2cb8:	eafffc71 	b	1e84 <_vfprintf_r+0x5f0>
    2cbc:	e247a001 	sub	r10, r7, #1
    2cc0:	e35a0000 	cmp	r10, #0
    2cc4:	daffff6a 	ble	2a74 <__cs3_region_zero_size_ram+0xa24>
    2cc8:	e35a0010 	cmp	r10, #16
    2ccc:	e51f70b4 	ldr	r7, [pc, #-180]	; 2c20 <__cs3_region_zero_size_ram+0xbd0>
    2cd0:	da0000bf 	ble	2fd4 <__cs3_region_zero_size_ram+0xf84>
    2cd4:	e28d80a4 	add	r8, sp, #164	; 0xa4
    2cd8:	e1a03008 	mov	r3, r8
    2cdc:	e3a09010 	mov	r9, #16
    2ce0:	e1a08007 	mov	r8, r7
    2ce4:	e59db02c 	ldr	r11, [sp, #44]	; 0x2c
    2ce8:	e1a07003 	mov	r7, r3
    2cec:	ea000002 	b	2cfc <__cs3_region_zero_size_ram+0xcac>
    2cf0:	e24aa010 	sub	r10, r10, #16
    2cf4:	e35a0010 	cmp	r10, #16
    2cf8:	da0000b4 	ble	2fd0 <__cs3_region_zero_size_ram+0xf80>
    2cfc:	e2844001 	add	r4, r4, #1
    2d00:	e3540007 	cmp	r4, #7
    2d04:	e2866010 	add	r6, r6, #16
    2d08:	e8850300 	stm	r5, {r8, r9}
    2d0c:	e58d60ac 	str	r6, [sp, #172]	; 0xac
    2d10:	e58d40a8 	str	r4, [sp, #168]	; 0xa8
    2d14:	d2855008 	addle	r5, r5, #8
    2d18:	dafffff4 	ble	2cf0 <__cs3_region_zero_size_ram+0xca0>
    2d1c:	e1a0000b 	mov	r0, r11
    2d20:	e59d101c 	ldr	r1, [sp, #28]
    2d24:	e1a02007 	mov	r2, r7
    2d28:	eb00174e 	bl	8a68 <__sprint_r>
    2d2c:	e3500000 	cmp	r0, #0
    2d30:	1afffbbc 	bne	1c28 <_vfprintf_r+0x394>
    2d34:	e28d40a8 	add	r4, sp, #168	; 0xa8
    2d38:	e8940050 	ldm	r4, {r4, r6}
    2d3c:	e28d5d05 	add	r5, sp, #320	; 0x140
    2d40:	eaffffea 	b	2cf0 <__cs3_region_zero_size_ram+0xca0>
    2d44:	e1960007 	orrs	r0, r6, r7
    2d48:	159db018 	ldrne	r11, [sp, #24]
    2d4c:	13a03030 	movne	r3, #48	; 0x30
    2d50:	138bb002 	orrne	r11, r11, #2
    2d54:	15cd3084 	strbne	r3, [sp, #132]	; 0x84
    2d58:	15cd8085 	strbne	r8, [sp, #133]	; 0x85
    2d5c:	158db018 	strne	r11, [sp, #24]
    2d60:	13a02001 	movne	r2, #1
    2d64:	03a02000 	moveq	r2, #0
    2d68:	e3a03002 	mov	r3, #2
    2d6c:	eafffcdd 	b	20e8 <__cs3_region_zero_size_ram+0x98>
    2d70:	e1a07008 	mov	r7, r8
    2d74:	e2844001 	add	r4, r4, #1
    2d78:	e086600a 	add	r6, r6, r10
    2d7c:	e3540007 	cmp	r4, #7
    2d80:	e8850480 	stm	r5, {r7, r10}
    2d84:	e58d60ac 	str	r6, [sp, #172]	; 0xac
    2d88:	e58d40a8 	str	r4, [sp, #168]	; 0xa8
    2d8c:	dafffe34 	ble	2664 <__cs3_region_zero_size_ram+0x614>
    2d90:	eaffff40 	b	2a98 <__cs3_region_zero_size_ram+0xa48>
    2d94:	e1a0a00b 	mov	r10, r11
    2d98:	e59db038 	ldr	r11, [sp, #56]	; 0x38
    2d9c:	e2844001 	add	r4, r4, #1
    2da0:	e086600a 	add	r6, r6, r10
    2da4:	e3540007 	cmp	r4, #7
    2da8:	e8850480 	stm	r5, {r7, r10}
    2dac:	e58d60ac 	str	r6, [sp, #172]	; 0xac
    2db0:	e58d40a8 	str	r4, [sp, #168]	; 0xa8
    2db4:	d2855008 	addle	r5, r5, #8
    2db8:	da000007 	ble	2ddc <__cs3_region_zero_size_ram+0xd8c>
    2dbc:	e59d002c 	ldr	r0, [sp, #44]	; 0x2c
    2dc0:	e59d101c 	ldr	r1, [sp, #28]
    2dc4:	e28d20a4 	add	r2, sp, #164	; 0xa4
    2dc8:	eb001726 	bl	8a68 <__sprint_r>
    2dcc:	e3500000 	cmp	r0, #0
    2dd0:	1afffb94 	bne	1c28 <_vfprintf_r+0x394>
    2dd4:	e59d60ac 	ldr	r6, [sp, #172]	; 0xac
    2dd8:	e28d5d05 	add	r5, sp, #320	; 0x140
    2ddc:	e59d3088 	ldr	r3, [sp, #136]	; 0x88
    2de0:	e59d4044 	ldr	r4, [sp, #68]	; 0x44
    2de4:	e59d704c 	ldr	r7, [sp, #76]	; 0x4c
    2de8:	e59dc060 	ldr	r12, [sp, #96]	; 0x60
    2dec:	e1530004 	cmp	r3, r4
    2df0:	e087800c 	add	r8, r7, r12
    2df4:	ba000038 	blt	2edc <__cs3_region_zero_size_ram+0xe8c>
    2df8:	e59d4018 	ldr	r4, [sp, #24]
    2dfc:	e3140001 	tst	r4, #1
    2e00:	1a000035 	bne	2edc <__cs3_region_zero_size_ram+0xe8c>
    2e04:	e59d4044 	ldr	r4, [sp, #68]	; 0x44
    2e08:	e068700b 	rsb	r7, r8, r11
    2e0c:	e0633004 	rsb	r3, r3, r4
    2e10:	e1530007 	cmp	r3, r7
    2e14:	b1a07003 	movlt	r7, r3
    2e18:	a1a07007 	movge	r7, r7
    2e1c:	e3570000 	cmp	r7, #0
    2e20:	da000009 	ble	2e4c <__cs3_region_zero_size_ram+0xdfc>
    2e24:	e59d40a8 	ldr	r4, [sp, #168]	; 0xa8
    2e28:	e2844001 	add	r4, r4, #1
    2e2c:	e0866007 	add	r6, r6, r7
    2e30:	e3540007 	cmp	r4, #7
    2e34:	e5858000 	str	r8, [r5]
    2e38:	e5857004 	str	r7, [r5, #4]
    2e3c:	e58d60ac 	str	r6, [sp, #172]	; 0xac
    2e40:	e58d40a8 	str	r4, [sp, #168]	; 0xa8
    2e44:	d2855008 	addle	r5, r5, #8
    2e48:	ca000208 	bgt	3670 <__cs3_region_zero_size_ram+0x1620>
    2e4c:	e1c77fc7 	bic	r7, r7, r7, asr #31
    2e50:	e067a003 	rsb	r10, r7, r3
    2e54:	e35a0000 	cmp	r10, #0
    2e58:	dafffe02 	ble	2668 <__cs3_region_zero_size_ram+0x618>
    2e5c:	e35a0010 	cmp	r10, #16
    2e60:	e59d40a8 	ldr	r4, [sp, #168]	; 0xa8
    2e64:	e51f724c 	ldr	r7, [pc, #-588]	; 2c20 <__cs3_region_zero_size_ram+0xbd0>
    2e68:	daffffc1 	ble	2d74 <__cs3_region_zero_size_ram+0xd24>
    2e6c:	e28d80a4 	add	r8, sp, #164	; 0xa4
    2e70:	e1a03008 	mov	r3, r8
    2e74:	e3a09010 	mov	r9, #16
    2e78:	e1a08007 	mov	r8, r7
    2e7c:	e59db02c 	ldr	r11, [sp, #44]	; 0x2c
    2e80:	e1a07003 	mov	r7, r3
    2e84:	ea000002 	b	2e94 <__cs3_region_zero_size_ram+0xe44>
    2e88:	e24aa010 	sub	r10, r10, #16
    2e8c:	e35a0010 	cmp	r10, #16
    2e90:	daffffb6 	ble	2d70 <__cs3_region_zero_size_ram+0xd20>
    2e94:	e2844001 	add	r4, r4, #1
    2e98:	e3540007 	cmp	r4, #7
    2e9c:	e2866010 	add	r6, r6, #16
    2ea0:	e8850300 	stm	r5, {r8, r9}
    2ea4:	e58d60ac 	str	r6, [sp, #172]	; 0xac
    2ea8:	e58d40a8 	str	r4, [sp, #168]	; 0xa8
    2eac:	d2855008 	addle	r5, r5, #8
    2eb0:	dafffff4 	ble	2e88 <__cs3_region_zero_size_ram+0xe38>
    2eb4:	e1a0000b 	mov	r0, r11
    2eb8:	e59d101c 	ldr	r1, [sp, #28]
    2ebc:	e1a02007 	mov	r2, r7
    2ec0:	eb0016e8 	bl	8a68 <__sprint_r>
    2ec4:	e3500000 	cmp	r0, #0
    2ec8:	1afffb56 	bne	1c28 <_vfprintf_r+0x394>
    2ecc:	e28d40a8 	add	r4, sp, #168	; 0xa8
    2ed0:	e8940050 	ldm	r4, {r4, r6}
    2ed4:	e28d5d05 	add	r5, sp, #320	; 0x140
    2ed8:	eaffffea 	b	2e88 <__cs3_region_zero_size_ram+0xe38>
    2edc:	e59d40a8 	ldr	r4, [sp, #168]	; 0xa8
    2ee0:	e59d7064 	ldr	r7, [sp, #100]	; 0x64
    2ee4:	e2844001 	add	r4, r4, #1
    2ee8:	e59dc058 	ldr	r12, [sp, #88]	; 0x58
    2eec:	e0866007 	add	r6, r6, r7
    2ef0:	e3540007 	cmp	r4, #7
    2ef4:	e585c000 	str	r12, [r5]
    2ef8:	e5857004 	str	r7, [r5, #4]
    2efc:	e58d60ac 	str	r6, [sp, #172]	; 0xac
    2f00:	e58d40a8 	str	r4, [sp, #168]	; 0xa8
    2f04:	d2855008 	addle	r5, r5, #8
    2f08:	daffffbd 	ble	2e04 <__cs3_region_zero_size_ram+0xdb4>
    2f0c:	e59d002c 	ldr	r0, [sp, #44]	; 0x2c
    2f10:	e59d101c 	ldr	r1, [sp, #28]
    2f14:	e28d20a4 	add	r2, sp, #164	; 0xa4
    2f18:	eb0016d2 	bl	8a68 <__sprint_r>
    2f1c:	e3500000 	cmp	r0, #0
    2f20:	1afffb40 	bne	1c28 <_vfprintf_r+0x394>
    2f24:	e59d3088 	ldr	r3, [sp, #136]	; 0x88
    2f28:	e59d60ac 	ldr	r6, [sp, #172]	; 0xac
    2f2c:	e28d5d05 	add	r5, sp, #320	; 0x140
    2f30:	eaffffb3 	b	2e04 <__cs3_region_zero_size_ram+0xdb4>
    2f34:	e59d7018 	ldr	r7, [sp, #24]
    2f38:	e3170001 	tst	r7, #1
    2f3c:	1afffea5 	bne	29d8 <__cs3_region_zero_size_ram+0x988>
    2f40:	e59d704c 	ldr	r7, [sp, #76]	; 0x4c
    2f44:	e3a03001 	mov	r3, #1
    2f48:	e3540007 	cmp	r4, #7
    2f4c:	e5857000 	str	r7, [r5]
    2f50:	e5853004 	str	r3, [r5, #4]
    2f54:	e58d60ac 	str	r6, [sp, #172]	; 0xac
    2f58:	e58d40a8 	str	r4, [sp, #168]	; 0xa8
    2f5c:	dafffec3 	ble	2a70 <__cs3_region_zero_size_ram+0xa20>
    2f60:	e59d002c 	ldr	r0, [sp, #44]	; 0x2c
    2f64:	e59d101c 	ldr	r1, [sp, #28]
    2f68:	e28d20a4 	add	r2, sp, #164	; 0xa4
    2f6c:	eb0016bd 	bl	8a68 <__sprint_r>
    2f70:	e3500000 	cmp	r0, #0
    2f74:	e28db0b0 	add	r11, sp, #176	; 0xb0
    2f78:	0a000022 	beq	3008 <__cs3_region_zero_size_ram+0xfb8>
    2f7c:	eafffb29 	b	1c28 <_vfprintf_r+0x394>
    2f80:	e59d002c 	ldr	r0, [sp, #44]	; 0x2c
    2f84:	e59d101c 	ldr	r1, [sp, #28]
    2f88:	e28d20a4 	add	r2, sp, #164	; 0xa4
    2f8c:	eb0016b5 	bl	8a68 <__sprint_r>
    2f90:	e3500000 	cmp	r0, #0
    2f94:	1afffb23 	bne	1c28 <_vfprintf_r+0x394>
    2f98:	e28d40a8 	add	r4, sp, #168	; 0xa8
    2f9c:	e8940050 	ldm	r4, {r4, r6}
    2fa0:	e28d5d05 	add	r5, sp, #320	; 0x140
    2fa4:	eafffe94 	b	29fc <__cs3_region_zero_size_ram+0x9ac>
    2fa8:	e59d002c 	ldr	r0, [sp, #44]	; 0x2c
    2fac:	e59d101c 	ldr	r1, [sp, #28]
    2fb0:	e28d20a4 	add	r2, sp, #164	; 0xa4
    2fb4:	eb0016ab 	bl	8a68 <__sprint_r>
    2fb8:	e3500000 	cmp	r0, #0
    2fbc:	1afffb19 	bne	1c28 <_vfprintf_r+0x394>
    2fc0:	e28d40a8 	add	r4, sp, #168	; 0xa8
    2fc4:	e8940050 	ldm	r4, {r4, r6}
    2fc8:	e28d5d05 	add	r5, sp, #320	; 0x140
    2fcc:	eafffe95 	b	2a28 <__cs3_region_zero_size_ram+0x9d8>
    2fd0:	e1a07008 	mov	r7, r8
    2fd4:	e2844001 	add	r4, r4, #1
    2fd8:	e086600a 	add	r6, r6, r10
    2fdc:	e3540007 	cmp	r4, #7
    2fe0:	e8850480 	stm	r5, {r7, r10}
    2fe4:	e58d60ac 	str	r6, [sp, #172]	; 0xac
    2fe8:	e58d40a8 	str	r4, [sp, #168]	; 0xa8
    2fec:	dafffe9f 	ble	2a70 <__cs3_region_zero_size_ram+0xa20>
    2ff0:	e59d002c 	ldr	r0, [sp, #44]	; 0x2c
    2ff4:	e59d101c 	ldr	r1, [sp, #28]
    2ff8:	e28d20a4 	add	r2, sp, #164	; 0xa4
    2ffc:	eb001699 	bl	8a68 <__sprint_r>
    3000:	e3500000 	cmp	r0, #0
    3004:	1afffb07 	bne	1c28 <_vfprintf_r+0x394>
    3008:	e28d40a8 	add	r4, sp, #168	; 0xa8
    300c:	e28d5d05 	add	r5, sp, #320	; 0x140
    3010:	e8940050 	ldm	r4, {r4, r6}
    3014:	eafffe96 	b	2a74 <__cs3_region_zero_size_ram+0xa24>
    3018:	e59da05c 	ldr	r10, [sp, #92]	; 0x5c
    301c:	e1a00006 	mov	r0, r6
    3020:	e1a01007 	mov	r1, r7
    3024:	e3a0200a 	mov	r2, #10
    3028:	e3a03000 	mov	r3, #0
    302c:	eb002070 	bl	b1f4 <__aeabi_uldivmod>
    3030:	e2822030 	add	r2, r2, #48	; 0x30
    3034:	e5ca2000 	strb	r2, [r10]
    3038:	e1a00006 	mov	r0, r6
    303c:	e1a01007 	mov	r1, r7
    3040:	e3a0200a 	mov	r2, #10
    3044:	e3a03000 	mov	r3, #0
    3048:	eb002069 	bl	b1f4 <__aeabi_uldivmod>
    304c:	e1a06000 	mov	r6, r0
    3050:	e1a07001 	mov	r7, r1
    3054:	e196b007 	orrs	r11, r6, r7
    3058:	e1a0900a 	mov	r9, r10
    305c:	e24aa001 	sub	r10, r10, #1
    3060:	1affffed 	bne	301c <__cs3_region_zero_size_ram+0xfcc>
    3064:	e59dc054 	ldr	r12, [sp, #84]	; 0x54
    3068:	e069c00c 	rsb	r12, r9, r12
    306c:	e58d904c 	str	r9, [sp, #76]	; 0x4c
    3070:	e58dc038 	str	r12, [sp, #56]	; 0x38
    3074:	eafffb82 	b	1e84 <_vfprintf_r+0x5f0>
    3078:	e3520030 	cmp	r2, #48	; 0x30
    307c:	13a02030 	movne	r2, #48	; 0x30
    3080:	059db054 	ldreq	r11, [sp, #84]	; 0x54
    3084:	15432001 	strbne	r2, [r3, #-1]
    3088:	059dc04c 	ldreq	r12, [sp, #76]	; 0x4c
    308c:	159d3054 	ldrne	r3, [sp, #84]	; 0x54
    3090:	006cb00b 	rsbeq	r11, r12, r11
    3094:	106c3003 	rsbne	r3, r12, r3
    3098:	058db038 	streq	r11, [sp, #56]	; 0x38
    309c:	158dc04c 	strne	r12, [sp, #76]	; 0x4c
    30a0:	158d3038 	strne	r3, [sp, #56]	; 0x38
    30a4:	eafffb76 	b	1e84 <_vfprintf_r+0x5f0>
    30a8:	e2766000 	rsbs	r6, r6, #0
    30ac:	e2e77000 	rsc	r7, r7, #0
    30b0:	e3a0302d 	mov	r3, #45	; 0x2d
    30b4:	e1962007 	orrs	r2, r6, r7
    30b8:	e5cd3083 	strb	r3, [sp, #131]	; 0x83
    30bc:	03a02000 	moveq	r2, #0
    30c0:	13a02001 	movne	r2, #1
    30c4:	e3a03001 	mov	r3, #1
    30c8:	eafffb4b 	b	1dfc <_vfprintf_r+0x568>
    30cc:	e5d38000 	ldrb	r8, [r3]
    30d0:	eafffa52 	b	1a20 <_vfprintf_r+0x18c>
    30d4:	eb001575 	bl	86b0 <__fpclassifyd>
    30d8:	e3500000 	cmp	r0, #0
    30dc:	0a000111 	beq	3528 <__cs3_region_zero_size_ram+0x14d8>
    30e0:	e3740001 	cmn	r4, #1
    30e4:	e3c89020 	bic	r9, r8, #32
    30e8:	03a04006 	moveq	r4, #6
    30ec:	0a000003 	beq	3100 <__cs3_region_zero_size_ram+0x10b0>
    30f0:	e3590047 	cmp	r9, #71	; 0x47
    30f4:	1a000001 	bne	3100 <__cs3_region_zero_size_ram+0x10b0>
    30f8:	e3540000 	cmp	r4, #0
    30fc:	03a04001 	moveq	r4, #1
    3100:	e59d6018 	ldr	r6, [sp, #24]
    3104:	e3570000 	cmp	r7, #0
    3108:	e3866c01 	orr	r6, r6, #256	; 0x100
    310c:	b2877102 	addlt	r7, r7, #-2147483648	; 0x80000000
    3110:	b3a0b02d 	movlt	r11, #45	; 0x2d
    3114:	a3a0b000 	movge	r11, #0
    3118:	e2593046 	subs	r3, r9, #70	; 0x46
    311c:	e58d6040 	str	r6, [sp, #64]	; 0x40
    3120:	e2736000 	rsbs	r6, r3, #0
    3124:	e0b66003 	adcs	r6, r6, r3
    3128:	e3560000 	cmp	r6, #0
    312c:	1a00016a 	bne	36dc <__cs3_region_zero_size_ram+0x168c>
    3130:	e3590045 	cmp	r9, #69	; 0x45
    3134:	1a0001c4 	bne	384c <__cs3_region_zero_size_ram+0x17fc>
    3138:	e28d3090 	add	r3, sp, #144	; 0x90
    313c:	e58da020 	str	r10, [sp, #32]
    3140:	e2846001 	add	r6, r4, #1
    3144:	e28d1088 	add	r1, sp, #136	; 0x88
    3148:	e28d208c 	add	r2, sp, #140	; 0x8c
    314c:	e58d7024 	str	r7, [sp, #36]	; 0x24
    3150:	e3a00002 	mov	r0, #2
    3154:	e88d0041 	stm	sp, {r0, r6}
    3158:	e58d200c 	str	r2, [sp, #12]
    315c:	e58d3010 	str	r3, [sp, #16]
    3160:	e58d1008 	str	r1, [sp, #8]
    3164:	e59d002c 	ldr	r0, [sp, #44]	; 0x2c
    3168:	e28d3020 	add	r3, sp, #32
    316c:	e893000c 	ldm	r3, {r2, r3}
    3170:	eb000392 	bl	3fc0 <_dtoa_r>
    3174:	e58d004c 	str	r0, [sp, #76]	; 0x4c
    3178:	e0806006 	add	r6, r0, r6
    317c:	e1a0000a 	mov	r0, r10
    3180:	e1a01007 	mov	r1, r7
    3184:	e3a02000 	mov	r2, #0
    3188:	e3a03000 	mov	r3, #0
    318c:	eb001fe3 	bl	b120 <__aeabi_dcmpeq>
    3190:	e3500000 	cmp	r0, #0
    3194:	1a000008 	bne	31bc <__cs3_region_zero_size_ram+0x116c>
    3198:	e59d3090 	ldr	r3, [sp, #144]	; 0x90
    319c:	e1560003 	cmp	r6, r3
    31a0:	91a06003 	movls	r6, r3
    31a4:	9a000004 	bls	31bc <__cs3_region_zero_size_ram+0x116c>
    31a8:	e3a02030 	mov	r2, #48	; 0x30
    31ac:	e4c32001 	strb	r2, [r3], #1
    31b0:	e1530006 	cmp	r3, r6
    31b4:	e58d3090 	str	r3, [sp, #144]	; 0x90
    31b8:	1afffffb 	bne	31ac <__cs3_region_zero_size_ram+0x115c>
    31bc:	e59d704c 	ldr	r7, [sp, #76]	; 0x4c
    31c0:	e3590047 	cmp	r9, #71	; 0x47
    31c4:	e0676006 	rsb	r6, r7, r6
    31c8:	e58d6044 	str	r6, [sp, #68]	; 0x44
    31cc:	0a000163 	beq	3760 <__cs3_region_zero_size_ram+0x1710>
    31d0:	e3580065 	cmp	r8, #101	; 0x65
    31d4:	da000201 	ble	39e0 <__cs3_region_zero_size_ram+0x1990>
    31d8:	e3580066 	cmp	r8, #102	; 0x66
    31dc:	e59d3088 	ldr	r3, [sp, #136]	; 0x88
    31e0:	0a0001a5 	beq	387c <__cs3_region_zero_size_ram+0x182c>
    31e4:	e59dc044 	ldr	r12, [sp, #68]	; 0x44
    31e8:	e153000c 	cmp	r3, r12
    31ec:	ba000198 	blt	3854 <__cs3_region_zero_size_ram+0x1804>
    31f0:	e59d4018 	ldr	r4, [sp, #24]
    31f4:	e3140001 	tst	r4, #1
    31f8:	12837001 	addne	r7, r3, #1
    31fc:	01c36fc3 	biceq	r6, r3, r3, asr #31
    3200:	11c7cfc7 	bicne	r12, r7, r7, asr #31
    3204:	058d6020 	streq	r6, [sp, #32]
    3208:	058d3038 	streq	r3, [sp, #56]	; 0x38
    320c:	158d7038 	strne	r7, [sp, #56]	; 0x38
    3210:	158dc020 	strne	r12, [sp, #32]
    3214:	e3a08067 	mov	r8, #103	; 0x67
    3218:	e58d3060 	str	r3, [sp, #96]	; 0x60
    321c:	e35b0000 	cmp	r11, #0
    3220:	0a000128 	beq	36c8 <__cs3_region_zero_size_ram+0x1678>
    3224:	e59db040 	ldr	r11, [sp, #64]	; 0x40
    3228:	e3a0302d 	mov	r3, #45	; 0x2d
    322c:	e3a0c000 	mov	r12, #0
    3230:	e5cd3083 	strb	r3, [sp, #131]	; 0x83
    3234:	e58db018 	str	r11, [sp, #24]
    3238:	e58dc040 	str	r12, [sp, #64]	; 0x40
    323c:	eafffb1a 	b	1eac <_vfprintf_r+0x618>
    3240:	e59dc03c 	ldr	r12, [sp, #60]	; 0x3c
    3244:	e28c1007 	add	r1, r12, #7
    3248:	e3c11007 	bic	r1, r1, #7
    324c:	e591a000 	ldr	r10, [r1]
    3250:	e5917004 	ldr	r7, [r1, #4]
    3254:	e2811008 	add	r1, r1, #8
    3258:	e58d103c 	str	r1, [sp, #60]	; 0x3c
    325c:	e1a0000a 	mov	r0, r10
    3260:	e1a01007 	mov	r1, r7
    3264:	e58d0068 	str	r0, [sp, #104]	; 0x68
    3268:	e58d106c 	str	r1, [sp, #108]	; 0x6c
    326c:	eafffb6a 	b	201c <_vfprintf_r+0x788>
    3270:	e59d7018 	ldr	r7, [sp, #24]
    3274:	e3170010 	tst	r7, #16
    3278:	1a000009 	bne	32a4 <__cs3_region_zero_size_ram+0x1254>
    327c:	e59d4018 	ldr	r4, [sp, #24]
    3280:	e3140040 	tst	r4, #64	; 0x40
    3284:	0a000006 	beq	32a4 <__cs3_region_zero_size_ram+0x1254>
    3288:	e59d603c 	ldr	r6, [sp, #60]	; 0x3c
    328c:	e59d7034 	ldr	r7, [sp, #52]	; 0x34
    3290:	e5963000 	ldr	r3, [r6]
    3294:	e2866004 	add	r6, r6, #4
    3298:	e58d603c 	str	r6, [sp, #60]	; 0x3c
    329c:	e1c370b0 	strh	r7, [r3]
    32a0:	eafff9b3 	b	1974 <_vfprintf_r+0xe0>
    32a4:	e59db03c 	ldr	r11, [sp, #60]	; 0x3c
    32a8:	e59dc034 	ldr	r12, [sp, #52]	; 0x34
    32ac:	e59b3000 	ldr	r3, [r11]
    32b0:	e28bb004 	add	r11, r11, #4
    32b4:	e58db03c 	str	r11, [sp, #60]	; 0x3c
    32b8:	e583c000 	str	r12, [r3]
    32bc:	eafff9ac 	b	1974 <_vfprintf_r+0xe0>
    32c0:	e59dc018 	ldr	r12, [sp, #24]
    32c4:	e31c0040 	tst	r12, #64	; 0x40
    32c8:	0a00008d 	beq	3504 <__cs3_region_zero_size_ram+0x14b4>
    32cc:	e59d603c 	ldr	r6, [sp, #60]	; 0x3c
    32d0:	e1d630f0 	ldrsh	r3, [r6]
    32d4:	eafffc4a 	b	2404 <__cs3_region_zero_size_ram+0x3b4>
    32d8:	e59dc018 	ldr	r12, [sp, #24]
    32dc:	e31c0040 	tst	r12, #64	; 0x40
    32e0:	0a000080 	beq	34e8 <__cs3_region_zero_size_ram+0x1498>
    32e4:	e59d603c 	ldr	r6, [sp, #60]	; 0x3c
    32e8:	e59db03c 	ldr	r11, [sp, #60]	; 0x3c
    32ec:	e1d630b0 	ldrh	r3, [r6]
    32f0:	e28bb004 	add	r11, r11, #4
    32f4:	e1a06003 	mov	r6, r3
    32f8:	e3a07000 	mov	r7, #0
    32fc:	e58db03c 	str	r11, [sp, #60]	; 0x3c
    3300:	eafffb99 	b	216c <__cs3_region_zero_size_ram+0x11c>
    3304:	e59dc018 	ldr	r12, [sp, #24]
    3308:	e31c0040 	tst	r12, #64	; 0x40
    330c:	0a00006b 	beq	34c0 <__cs3_region_zero_size_ram+0x1470>
    3310:	e59d603c 	ldr	r6, [sp, #60]	; 0x3c
    3314:	e1d620b0 	ldrh	r2, [r6]
    3318:	eafffc17 	b	237c <__cs3_region_zero_size_ram+0x32c>
    331c:	e59dc018 	ldr	r12, [sp, #24]
    3320:	e21c3040 	ands	r3, r12, #64	; 0x40
    3324:	0a00005c 	beq	349c <__cs3_region_zero_size_ram+0x144c>
    3328:	e59d603c 	ldr	r6, [sp, #60]	; 0x3c
    332c:	e59db03c 	ldr	r11, [sp, #60]	; 0x3c
    3330:	e1d620b0 	ldrh	r2, [r6]
    3334:	e3a07000 	mov	r7, #0
    3338:	e1a06002 	mov	r6, r2
    333c:	e28bb004 	add	r11, r11, #4
    3340:	e0522007 	subs	r2, r2, r7
    3344:	13a02001 	movne	r2, #1
    3348:	e58db03c 	str	r11, [sp, #60]	; 0x3c
    334c:	e1a03001 	mov	r3, r1
    3350:	eafffb64 	b	20e8 <__cs3_region_zero_size_ram+0x98>
    3354:	e59d002c 	ldr	r0, [sp, #44]	; 0x2c
    3358:	e59d101c 	ldr	r1, [sp, #28]
    335c:	e28d20a4 	add	r2, sp, #164	; 0xa4
    3360:	eb0015c0 	bl	8a68 <__sprint_r>
    3364:	e3500000 	cmp	r0, #0
    3368:	e28d40b0 	add	r4, sp, #176	; 0xb0
    336c:	1afffa2d 	bne	1c28 <_vfprintf_r+0x394>
    3370:	e59d60ac 	ldr	r6, [sp, #172]	; 0xac
    3374:	e28d5d05 	add	r5, sp, #320	; 0x140
    3378:	eafffd16 	b	27d8 <__cs3_region_zero_size_ram+0x788>
    337c:	e59d40a8 	ldr	r4, [sp, #168]	; 0xa8
    3380:	e51f376c 	ldr	r3, [pc, #-1900]	; 2c1c <__cs3_region_zero_size_ram+0xbcc>
    3384:	e2844001 	add	r4, r4, #1
    3388:	e5853000 	str	r3, [r5]
    338c:	e2866001 	add	r6, r6, #1
    3390:	e3540007 	cmp	r4, #7
    3394:	e3a03001 	mov	r3, #1
    3398:	e5853004 	str	r3, [r5, #4]
    339c:	e58d60ac 	str	r6, [sp, #172]	; 0xac
    33a0:	e58d40a8 	str	r4, [sp, #168]	; 0xa8
    33a4:	d2855008 	addle	r5, r5, #8
    33a8:	ca000074 	bgt	3580 <__cs3_region_zero_size_ram+0x1530>
    33ac:	e3580000 	cmp	r8, #0
    33b0:	0a00006b 	beq	3564 <__cs3_region_zero_size_ram+0x1514>
    33b4:	e59d40a8 	ldr	r4, [sp, #168]	; 0xa8
    33b8:	e59dc064 	ldr	r12, [sp, #100]	; 0x64
    33bc:	e2844001 	add	r4, r4, #1
    33c0:	e59d7058 	ldr	r7, [sp, #88]	; 0x58
    33c4:	e086600c 	add	r6, r6, r12
    33c8:	e3540007 	cmp	r4, #7
    33cc:	e8851080 	stm	r5, {r7, r12}
    33d0:	e58d60ac 	str	r6, [sp, #172]	; 0xac
    33d4:	e58d40a8 	str	r4, [sp, #168]	; 0xa8
    33d8:	d2855008 	addle	r5, r5, #8
    33dc:	ca00010e 	bgt	381c <__cs3_region_zero_size_ram+0x17cc>
    33e0:	e2688000 	rsb	r8, r8, #0
    33e4:	e3580000 	cmp	r8, #0
    33e8:	da00008a 	ble	3618 <__cs3_region_zero_size_ram+0x15c8>
    33ec:	e3580010 	cmp	r8, #16
    33f0:	e51f77d8 	ldr	r7, [pc, #-2008]	; 2c20 <__cs3_region_zero_size_ram+0xbd0>
    33f4:	da000076 	ble	35d4 <__cs3_region_zero_size_ram+0x1584>
    33f8:	e3a0a010 	mov	r10, #16
    33fc:	e28d90a4 	add	r9, sp, #164	; 0xa4
    3400:	e59db02c 	ldr	r11, [sp, #44]	; 0x2c
    3404:	ea000002 	b	3414 <__cs3_region_zero_size_ram+0x13c4>
    3408:	e2488010 	sub	r8, r8, #16
    340c:	e3580010 	cmp	r8, #16
    3410:	da00006f 	ble	35d4 <__cs3_region_zero_size_ram+0x1584>
    3414:	e2844001 	add	r4, r4, #1
    3418:	e3540007 	cmp	r4, #7
    341c:	e2866010 	add	r6, r6, #16
    3420:	e8850480 	stm	r5, {r7, r10}
    3424:	e58d60ac 	str	r6, [sp, #172]	; 0xac
    3428:	e58d40a8 	str	r4, [sp, #168]	; 0xa8
    342c:	d2855008 	addle	r5, r5, #8
    3430:	dafffff4 	ble	3408 <__cs3_region_zero_size_ram+0x13b8>
    3434:	e1a0000b 	mov	r0, r11
    3438:	e59d101c 	ldr	r1, [sp, #28]
    343c:	e1a02009 	mov	r2, r9
    3440:	eb001588 	bl	8a68 <__sprint_r>
    3444:	e3500000 	cmp	r0, #0
    3448:	1afff9f6 	bne	1c28 <_vfprintf_r+0x394>
    344c:	e28d40a8 	add	r4, sp, #168	; 0xa8
    3450:	e8940050 	ldm	r4, {r4, r6}
    3454:	e28d5d05 	add	r5, sp, #320	; 0x140
    3458:	eaffffea 	b	3408 <__cs3_region_zero_size_ram+0x13b8>
    345c:	e59d30ac 	ldr	r3, [sp, #172]	; 0xac
    3460:	e3530000 	cmp	r3, #0
    3464:	e59d901c 	ldr	r9, [sp, #28]
    3468:	0afff9ef 	beq	1c2c <_vfprintf_r+0x398>
    346c:	e59d002c 	ldr	r0, [sp, #44]	; 0x2c
    3470:	e1a01009 	mov	r1, r9
    3474:	e28d20a4 	add	r2, sp, #164	; 0xa4
    3478:	eb00157a 	bl	8a68 <__sprint_r>
    347c:	eafff9ea 	b	1c2c <_vfprintf_r+0x398>
    3480:	e59db038 	ldr	r11, [sp, #56]	; 0x38
    3484:	e1cbbfcb 	bic	r11, r11, r11, asr #31
    3488:	e58db020 	str	r11, [sp, #32]
    348c:	e5dd3083 	ldrb	r3, [sp, #131]	; 0x83
    3490:	e58d703c 	str	r7, [sp, #60]	; 0x3c
    3494:	e58d6060 	str	r6, [sp, #96]	; 0x60
    3498:	eafffa81 	b	1ea4 <_vfprintf_r+0x610>
    349c:	e59dc03c 	ldr	r12, [sp, #60]	; 0x3c
    34a0:	e59c2000 	ldr	r2, [r12]
    34a4:	e3a07000 	mov	r7, #0
    34a8:	e1a06002 	mov	r6, r2
    34ac:	e28cc004 	add	r12, r12, #4
    34b0:	e0522007 	subs	r2, r2, r7
    34b4:	13a02001 	movne	r2, #1
    34b8:	e58dc03c 	str	r12, [sp, #60]	; 0x3c
    34bc:	eafffb09 	b	20e8 <__cs3_region_zero_size_ram+0x98>
    34c0:	e59dc03c 	ldr	r12, [sp, #60]	; 0x3c
    34c4:	e59c2000 	ldr	r2, [r12]
    34c8:	e3a07000 	mov	r7, #0
    34cc:	e1a06002 	mov	r6, r2
    34d0:	e28cc004 	add	r12, r12, #4
    34d4:	e0522007 	subs	r2, r2, r7
    34d8:	13a02001 	movne	r2, #1
    34dc:	e58dc03c 	str	r12, [sp, #60]	; 0x3c
    34e0:	e3a03001 	mov	r3, #1
    34e4:	eafffaff 	b	20e8 <__cs3_region_zero_size_ram+0x98>
    34e8:	e59dc03c 	ldr	r12, [sp, #60]	; 0x3c
    34ec:	e59c3000 	ldr	r3, [r12]
    34f0:	e28cc004 	add	r12, r12, #4
    34f4:	e1a06003 	mov	r6, r3
    34f8:	e3a07000 	mov	r7, #0
    34fc:	e58dc03c 	str	r12, [sp, #60]	; 0x3c
    3500:	eafffb19 	b	216c <__cs3_region_zero_size_ram+0x11c>
    3504:	e59dc03c 	ldr	r12, [sp, #60]	; 0x3c
    3508:	e59c3000 	ldr	r3, [r12]
    350c:	e28cc004 	add	r12, r12, #4
    3510:	e1a07fc3 	asr	r7, r3, #31
    3514:	e1a06003 	mov	r6, r3
    3518:	e1a02003 	mov	r2, r3
    351c:	e58dc03c 	str	r12, [sp, #60]	; 0x3c
    3520:	e1a03007 	mov	r3, r7
    3524:	eafffa2d 	b	1de0 <_vfprintf_r+0x54c>
    3528:	e51f390c 	ldr	r3, [pc, #-2316]	; 2c24 <__cs3_region_zero_size_ram+0xbd4>
    352c:	e59dc018 	ldr	r12, [sp, #24]
    3530:	e51f2910 	ldr	r2, [pc, #-2320]	; 2c28 <__cs3_region_zero_size_ram+0xbd8>
    3534:	e3580047 	cmp	r8, #71	; 0x47
    3538:	e3a0b003 	mov	r11, #3
    353c:	d1a02003 	movle	r2, r3
    3540:	e3ccc080 	bic	r12, r12, #128	; 0x80
    3544:	e58db020 	str	r11, [sp, #32]
    3548:	e58d0040 	str	r0, [sp, #64]	; 0x40
    354c:	e58d204c 	str	r2, [sp, #76]	; 0x4c
    3550:	e58dc018 	str	r12, [sp, #24]
    3554:	e5dd3083 	ldrb	r3, [sp, #131]	; 0x83
    3558:	e58db038 	str	r11, [sp, #56]	; 0x38
    355c:	e58d0060 	str	r0, [sp, #96]	; 0x60
    3560:	eafffa4f 	b	1ea4 <_vfprintf_r+0x610>
    3564:	e59d7044 	ldr	r7, [sp, #68]	; 0x44
    3568:	e3570000 	cmp	r7, #0
    356c:	1affff90 	bne	33b4 <__cs3_region_zero_size_ram+0x1364>
    3570:	e59db018 	ldr	r11, [sp, #24]
    3574:	e31b0001 	tst	r11, #1
    3578:	0afffc3a 	beq	2668 <__cs3_region_zero_size_ram+0x618>
    357c:	eaffff8c 	b	33b4 <__cs3_region_zero_size_ram+0x1364>
    3580:	e59d002c 	ldr	r0, [sp, #44]	; 0x2c
    3584:	e59d101c 	ldr	r1, [sp, #28]
    3588:	e28d20a4 	add	r2, sp, #164	; 0xa4
    358c:	eb001535 	bl	8a68 <__sprint_r>
    3590:	e3500000 	cmp	r0, #0
    3594:	e28d40b0 	add	r4, sp, #176	; 0xb0
    3598:	1afff9a2 	bne	1c28 <_vfprintf_r+0x394>
    359c:	e59d8088 	ldr	r8, [sp, #136]	; 0x88
    35a0:	e59d60ac 	ldr	r6, [sp, #172]	; 0xac
    35a4:	e28d5d05 	add	r5, sp, #320	; 0x140
    35a8:	eaffff7f 	b	33ac <__cs3_region_zero_size_ram+0x135c>
    35ac:	e59d002c 	ldr	r0, [sp, #44]	; 0x2c
    35b0:	e59d101c 	ldr	r1, [sp, #28]
    35b4:	e28d20a4 	add	r2, sp, #164	; 0xa4
    35b8:	eb00152a 	bl	8a68 <__sprint_r>
    35bc:	e3500000 	cmp	r0, #0
    35c0:	e28db0b0 	add	r11, sp, #176	; 0xb0
    35c4:	1afff997 	bne	1c28 <_vfprintf_r+0x394>
    35c8:	e59d60ac 	ldr	r6, [sp, #172]	; 0xac
    35cc:	e28d5d05 	add	r5, sp, #320	; 0x140
    35d0:	eafffc92 	b	2820 <__cs3_region_zero_size_ram+0x7d0>
    35d4:	e2844001 	add	r4, r4, #1
    35d8:	e0866008 	add	r6, r6, r8
    35dc:	e3540007 	cmp	r4, #7
    35e0:	e8850180 	stm	r5, {r7, r8}
    35e4:	e58d60ac 	str	r6, [sp, #172]	; 0xac
    35e8:	e58d40a8 	str	r4, [sp, #168]	; 0xa8
    35ec:	d2855008 	addle	r5, r5, #8
    35f0:	da000008 	ble	3618 <__cs3_region_zero_size_ram+0x15c8>
    35f4:	e59d002c 	ldr	r0, [sp, #44]	; 0x2c
    35f8:	e59d101c 	ldr	r1, [sp, #28]
    35fc:	e28d20a4 	add	r2, sp, #164	; 0xa4
    3600:	eb001518 	bl	8a68 <__sprint_r>
    3604:	e3500000 	cmp	r0, #0
    3608:	1afff986 	bne	1c28 <_vfprintf_r+0x394>
    360c:	e28d40a8 	add	r4, sp, #168	; 0xa8
    3610:	e8940050 	ldm	r4, {r4, r6}
    3614:	e28d5d05 	add	r5, sp, #320	; 0x140
    3618:	e2844001 	add	r4, r4, #1
    361c:	e59d7044 	ldr	r7, [sp, #68]	; 0x44
    3620:	eafffc07 	b	2644 <__cs3_region_zero_size_ram+0x5f4>
    3624:	ebfff882 	bl	1834 <strlen>
    3628:	e1c0cfc0 	bic	r12, r0, r0, asr #31
    362c:	e58d0038 	str	r0, [sp, #56]	; 0x38
    3630:	e58d6040 	str	r6, [sp, #64]	; 0x40
    3634:	e58dc020 	str	r12, [sp, #32]
    3638:	e5dd3083 	ldrb	r3, [sp, #131]	; 0x83
    363c:	e58d703c 	str	r7, [sp, #60]	; 0x3c
    3640:	e58d6060 	str	r6, [sp, #96]	; 0x60
    3644:	eafffa16 	b	1ea4 <_vfprintf_r+0x610>
    3648:	e59d002c 	ldr	r0, [sp, #44]	; 0x2c
    364c:	e59d101c 	ldr	r1, [sp, #28]
    3650:	e28d20a4 	add	r2, sp, #164	; 0xa4
    3654:	eb001503 	bl	8a68 <__sprint_r>
    3658:	e3500000 	cmp	r0, #0
    365c:	e28d60b0 	add	r6, sp, #176	; 0xb0
    3660:	1afff970 	bne	1c28 <_vfprintf_r+0x394>
    3664:	e59d60ac 	ldr	r6, [sp, #172]	; 0xac
    3668:	e28d5d05 	add	r5, sp, #320	; 0x140
    366c:	eafffd3f 	b	2b70 <__cs3_region_zero_size_ram+0xb20>
    3670:	e59d002c 	ldr	r0, [sp, #44]	; 0x2c
    3674:	e59d101c 	ldr	r1, [sp, #28]
    3678:	e28d20a4 	add	r2, sp, #164	; 0xa4
    367c:	eb0014f9 	bl	8a68 <__sprint_r>
    3680:	e3500000 	cmp	r0, #0
    3684:	e28d60b0 	add	r6, sp, #176	; 0xb0
    3688:	1afff966 	bne	1c28 <_vfprintf_r+0x394>
    368c:	e59d3088 	ldr	r3, [sp, #136]	; 0x88
    3690:	e59db044 	ldr	r11, [sp, #68]	; 0x44
    3694:	e59d60ac 	ldr	r6, [sp, #172]	; 0xac
    3698:	e063300b 	rsb	r3, r3, r11
    369c:	e28d5d05 	add	r5, sp, #320	; 0x140
    36a0:	eafffde9 	b	2e4c <__cs3_region_zero_size_ram+0xdfc>
    36a4:	e3540006 	cmp	r4, #6
    36a8:	23a04006 	movcs	r4, #6
    36ac:	e1c4cfc4 	bic	r12, r4, r4, asr #31
    36b0:	e58d4038 	str	r4, [sp, #56]	; 0x38
    36b4:	e51f4a90 	ldr	r4, [pc, #-2704]	; 2c2c <__cs3_region_zero_size_ram+0xbdc>
    36b8:	e58dc020 	str	r12, [sp, #32]
    36bc:	e58d703c 	str	r7, [sp, #60]	; 0x3c
    36c0:	e58d404c 	str	r4, [sp, #76]	; 0x4c
    36c4:	eafffb0a 	b	22f4 <__cs3_region_zero_size_ram+0x2a4>
    36c8:	e59d6040 	ldr	r6, [sp, #64]	; 0x40
    36cc:	e5dd3083 	ldrb	r3, [sp, #131]	; 0x83
    36d0:	e58d6018 	str	r6, [sp, #24]
    36d4:	e58db040 	str	r11, [sp, #64]	; 0x40
    36d8:	eafff9f1 	b	1ea4 <_vfprintf_r+0x610>
    36dc:	e3a02003 	mov	r2, #3
    36e0:	e28d3090 	add	r3, sp, #144	; 0x90
    36e4:	e58da020 	str	r10, [sp, #32]
    36e8:	e28d0088 	add	r0, sp, #136	; 0x88
    36ec:	e28d108c 	add	r1, sp, #140	; 0x8c
    36f0:	e58d7024 	str	r7, [sp, #36]	; 0x24
    36f4:	e88d0014 	stm	sp, {r2, r4}
    36f8:	e58d0008 	str	r0, [sp, #8]
    36fc:	e58d3010 	str	r3, [sp, #16]
    3700:	e58d100c 	str	r1, [sp, #12]
    3704:	e59d002c 	ldr	r0, [sp, #44]	; 0x2c
    3708:	e28d3020 	add	r3, sp, #32
    370c:	e893000c 	ldm	r3, {r2, r3}
    3710:	eb00022a 	bl	3fc0 <_dtoa_r>
    3714:	e3590047 	cmp	r9, #71	; 0x47
    3718:	e58d004c 	str	r0, [sp, #76]	; 0x4c
    371c:	1a000002 	bne	372c <__cs3_region_zero_size_ram+0x16dc>
    3720:	e59dc018 	ldr	r12, [sp, #24]
    3724:	e31c0001 	tst	r12, #1
    3728:	0a000009 	beq	3754 <__cs3_region_zero_size_ram+0x1704>
    372c:	e59dc04c 	ldr	r12, [sp, #76]	; 0x4c
    3730:	e3560000 	cmp	r6, #0
    3734:	e08c6004 	add	r6, r12, r4
    3738:	0afffe8f 	beq	317c <__cs3_region_zero_size_ram+0x112c>
    373c:	e5dc3000 	ldrb	r3, [r12]
    3740:	e3530030 	cmp	r3, #48	; 0x30
    3744:	0a000075 	beq	3920 <__cs3_region_zero_size_ram+0x18d0>
    3748:	e59d3088 	ldr	r3, [sp, #136]	; 0x88
    374c:	e0866003 	add	r6, r6, r3
    3750:	eafffe89 	b	317c <__cs3_region_zero_size_ram+0x112c>
    3754:	e59d3090 	ldr	r3, [sp, #144]	; 0x90
    3758:	e0603003 	rsb	r3, r0, r3
    375c:	e58d3044 	str	r3, [sp, #68]	; 0x44
    3760:	e59d0088 	ldr	r0, [sp, #136]	; 0x88
    3764:	e3700003 	cmn	r0, #3
    3768:	e1a03000 	mov	r3, r0
    376c:	ba000001 	blt	3778 <__cs3_region_zero_size_ram+0x1728>
    3770:	e1540000 	cmp	r4, r0
    3774:	aafffe9a 	bge	31e4 <__cs3_region_zero_size_ram+0x1194>
    3778:	e2488002 	sub	r8, r8, #2
    377c:	e2400001 	sub	r0, r0, #1
    3780:	e3500000 	cmp	r0, #0
    3784:	e58d0088 	str	r0, [sp, #136]	; 0x88
    3788:	b2600000 	rsblt	r0, r0, #0
    378c:	b3a0302d 	movlt	r3, #45	; 0x2d
    3790:	a3a0302b 	movge	r3, #43	; 0x2b
    3794:	e3500009 	cmp	r0, #9
    3798:	e5cd8094 	strb	r8, [sp, #148]	; 0x94
    379c:	e5cd3095 	strb	r3, [sp, #149]	; 0x95
    37a0:	ca000040 	bgt	38a8 <__cs3_region_zero_size_ram+0x1858>
    37a4:	e2800030 	add	r0, r0, #48	; 0x30
    37a8:	e3a02030 	mov	r2, #48	; 0x30
    37ac:	e28d30a0 	add	r3, sp, #160	; 0xa0
    37b0:	e5cd0097 	strb	r0, [sp, #151]	; 0x97
    37b4:	e5cd2096 	strb	r2, [sp, #150]	; 0x96
    37b8:	e2432008 	sub	r2, r3, #8
    37bc:	e59d6044 	ldr	r6, [sp, #68]	; 0x44
    37c0:	e243300c 	sub	r3, r3, #12
    37c4:	e0633002 	rsb	r3, r3, r2
    37c8:	e0867003 	add	r7, r6, r3
    37cc:	e3560001 	cmp	r6, #1
    37d0:	e58d3070 	str	r3, [sp, #112]	; 0x70
    37d4:	e58d7038 	str	r7, [sp, #56]	; 0x38
    37d8:	da000072 	ble	39a8 <__cs3_region_zero_size_ram+0x1958>
    37dc:	e59d6038 	ldr	r6, [sp, #56]	; 0x38
    37e0:	e2866001 	add	r6, r6, #1
    37e4:	e1c67fc6 	bic	r7, r6, r6, asr #31
    37e8:	e3a0c000 	mov	r12, #0
    37ec:	e58d6038 	str	r6, [sp, #56]	; 0x38
    37f0:	e58d7020 	str	r7, [sp, #32]
    37f4:	e58dc060 	str	r12, [sp, #96]	; 0x60
    37f8:	eafffe87 	b	321c <__cs3_region_zero_size_ram+0x11cc>
    37fc:	e1c46fc4 	bic	r6, r4, r4, asr #31
    3800:	e58d0040 	str	r0, [sp, #64]	; 0x40
    3804:	e58d6020 	str	r6, [sp, #32]
    3808:	e5dd3083 	ldrb	r3, [sp, #131]	; 0x83
    380c:	e58d703c 	str	r7, [sp, #60]	; 0x3c
    3810:	e58d4038 	str	r4, [sp, #56]	; 0x38
    3814:	e58d0060 	str	r0, [sp, #96]	; 0x60
    3818:	eafff9a1 	b	1ea4 <_vfprintf_r+0x610>
    381c:	e59d002c 	ldr	r0, [sp, #44]	; 0x2c
    3820:	e59d101c 	ldr	r1, [sp, #28]
    3824:	e28d20a4 	add	r2, sp, #164	; 0xa4
    3828:	eb00148e 	bl	8a68 <__sprint_r>
    382c:	e3500000 	cmp	r0, #0
    3830:	e28db0b0 	add	r11, sp, #176	; 0xb0
    3834:	1afff8fb 	bne	1c28 <_vfprintf_r+0x394>
    3838:	e28d40a8 	add	r4, sp, #168	; 0xa8
    383c:	e59d8088 	ldr	r8, [sp, #136]	; 0x88
    3840:	e8940050 	ldm	r4, {r4, r6}
    3844:	e28d5d05 	add	r5, sp, #320	; 0x140
    3848:	eafffee4 	b	33e0 <__cs3_region_zero_size_ram+0x1390>
    384c:	e3a02002 	mov	r2, #2
    3850:	eaffffa2 	b	36e0 <__cs3_region_zero_size_ram+0x1690>
    3854:	e3530000 	cmp	r3, #0
    3858:	e59d4044 	ldr	r4, [sp, #68]	; 0x44
    385c:	d2632002 	rsble	r2, r3, #2
    3860:	c3a02001 	movgt	r2, #1
    3864:	e0822004 	add	r2, r2, r4
    3868:	e1c26fc2 	bic	r6, r2, r2, asr #31
    386c:	e58d2038 	str	r2, [sp, #56]	; 0x38
    3870:	e58d6020 	str	r6, [sp, #32]
    3874:	e3a08067 	mov	r8, #103	; 0x67
    3878:	eafffe66 	b	3218 <__cs3_region_zero_size_ram+0x11c8>
    387c:	e3530000 	cmp	r3, #0
    3880:	da000036 	ble	3960 <__cs3_region_zero_size_ram+0x1910>
    3884:	e3540000 	cmp	r4, #0
    3888:	1a00002e 	bne	3948 <__cs3_region_zero_size_ram+0x18f8>
    388c:	e59d6018 	ldr	r6, [sp, #24]
    3890:	e3160001 	tst	r6, #1
    3894:	1a00002b 	bne	3948 <__cs3_region_zero_size_ram+0x18f8>
    3898:	e1c37fc3 	bic	r7, r3, r3, asr #31
    389c:	e58d7020 	str	r7, [sp, #32]
    38a0:	e58d3038 	str	r3, [sp, #56]	; 0x38
    38a4:	eafffe5b 	b	3218 <__cs3_region_zero_size_ram+0x11c8>
    38a8:	e28d30a0 	add	r3, sp, #160	; 0xa0
    38ac:	e2832002 	add	r2, r3, #2
    38b0:	e51f1c88 	ldr	r1, [pc, #-3208]	; 2c30 <__cs3_region_zero_size_ram+0xbe0>
    38b4:	e0cc4091 	smull	r4, r12, r1, r0
    38b8:	e1a01fc0 	asr	r1, r0, #31
    38bc:	e061114c 	rsb	r1, r1, r12, asr #2
    38c0:	e081c101 	add	r12, r1, r1, lsl #2
    38c4:	e040c08c 	sub	r12, r0, r12, lsl #1
    38c8:	e1a00001 	mov	r0, r1
    38cc:	e3500009 	cmp	r0, #9
    38d0:	e1a01002 	mov	r1, r2
    38d4:	e28c2030 	add	r2, r12, #48	; 0x30
    38d8:	e5c12000 	strb	r2, [r1]
    38dc:	e2412001 	sub	r2, r1, #1
    38e0:	cafffff2 	bgt	38b0 <__cs3_region_zero_size_ram+0x1860>
    38e4:	e2834003 	add	r4, r3, #3
    38e8:	e2800030 	add	r0, r0, #48	; 0x30
    38ec:	e1540002 	cmp	r4, r2
    38f0:	e5410001 	strb	r0, [r1, #-1]
    38f4:	9a000037 	bls	39d8 <__cs3_region_zero_size_ram+0x1988>
    38f8:	e243c00b 	sub	r12, r3, #11
    38fc:	e1a02001 	mov	r2, r1
    3900:	ea000000 	b	3908 <__cs3_region_zero_size_ram+0x18b8>
    3904:	e4d20001 	ldrb	r0, [r2], #1
    3908:	e1520004 	cmp	r2, r4
    390c:	e5ec0001 	strb	r0, [r12, #1]!
    3910:	1afffffb 	bne	3904 <__cs3_region_zero_size_ram+0x18b4>
    3914:	e0612083 	rsb	r2, r1, r3, lsl #1
    3918:	e2422006 	sub	r2, r2, #6
    391c:	eaffffa6 	b	37bc <__cs3_region_zero_size_ram+0x176c>
    3920:	e3a03000 	mov	r3, #0
    3924:	e1a0000a 	mov	r0, r10
    3928:	e1a01007 	mov	r1, r7
    392c:	e3a02000 	mov	r2, #0
    3930:	eb001dfa 	bl	b120 <__aeabi_dcmpeq>
    3934:	e3500000 	cmp	r0, #0
    3938:	02643001 	rsbeq	r3, r4, #1
    393c:	058d3088 	streq	r3, [sp, #136]	; 0x88
    3940:	0affff81 	beq	374c <__cs3_region_zero_size_ram+0x16fc>
    3944:	eaffff7f 	b	3748 <__cs3_region_zero_size_ram+0x16f8>
    3948:	e2844001 	add	r4, r4, #1
    394c:	e0834004 	add	r4, r3, r4
    3950:	e1c4cfc4 	bic	r12, r4, r4, asr #31
    3954:	e58d4038 	str	r4, [sp, #56]	; 0x38
    3958:	e58dc020 	str	r12, [sp, #32]
    395c:	eafffe2d 	b	3218 <__cs3_region_zero_size_ram+0x11c8>
    3960:	e3540000 	cmp	r4, #0
    3964:	1a000016 	bne	39c4 <__cs3_region_zero_size_ram+0x1974>
    3968:	e59d6018 	ldr	r6, [sp, #24]
    396c:	e3160001 	tst	r6, #1
    3970:	1a000013 	bne	39c4 <__cs3_region_zero_size_ram+0x1974>
    3974:	e3a07001 	mov	r7, #1
    3978:	e58d7020 	str	r7, [sp, #32]
    397c:	e58d7038 	str	r7, [sp, #56]	; 0x38
    3980:	eafffe24 	b	3218 <__cs3_region_zero_size_ram+0x11c8>
    3984:	e59db03c 	ldr	r11, [sp, #60]	; 0x3c
    3988:	e59b4000 	ldr	r4, [r11]
    398c:	e28b0004 	add	r0, r11, #4
    3990:	e3540000 	cmp	r4, #0
    3994:	e5d38001 	ldrb	r8, [r3, #1]
    3998:	e58d003c 	str	r0, [sp, #60]	; 0x3c
    399c:	e1a0300c 	mov	r3, r12
    39a0:	b3e04000 	mvnlt	r4, #0
    39a4:	eafff81d 	b	1a20 <_vfprintf_r+0x18c>
    39a8:	e59dc018 	ldr	r12, [sp, #24]
    39ac:	e21c3001 	ands	r3, r12, #1
    39b0:	1affff89 	bne	37dc <__cs3_region_zero_size_ram+0x178c>
    39b4:	e1c74fc7 	bic	r4, r7, r7, asr #31
    39b8:	e58d4020 	str	r4, [sp, #32]
    39bc:	e58d3060 	str	r3, [sp, #96]	; 0x60
    39c0:	eafffe15 	b	321c <__cs3_region_zero_size_ram+0x11cc>
    39c4:	e2844002 	add	r4, r4, #2
    39c8:	e1c47fc4 	bic	r7, r4, r4, asr #31
    39cc:	e58d4038 	str	r4, [sp, #56]	; 0x38
    39d0:	e58d7020 	str	r7, [sp, #32]
    39d4:	eafffe0f 	b	3218 <__cs3_region_zero_size_ram+0x11c8>
    39d8:	e243200a 	sub	r2, r3, #10
    39dc:	eaffff76 	b	37bc <__cs3_region_zero_size_ram+0x176c>
    39e0:	e59d0088 	ldr	r0, [sp, #136]	; 0x88
    39e4:	eaffff64 	b	377c <__cs3_region_zero_size_ram+0x172c>

000039e8 <vfprintf>:
    39e8:	e52d4004 	push	{r4}		; (str r4, [sp, #-4]!)
    39ec:	e1a03002 	mov	r3, r2
    39f0:	e59f2018 	ldr	r2, [pc, #24]	; 3a10 <vfprintf+0x28>
    39f4:	e1a04000 	mov	r4, r0
    39f8:	e1a0c001 	mov	r12, r1
    39fc:	e5920000 	ldr	r0, [r2]
    3a00:	e1a01004 	mov	r1, r4
    3a04:	e1a0200c 	mov	r2, r12
    3a08:	e8bd0010 	ldmfd	sp!, {r4}
    3a0c:	eafff7a0 	b	1894 <_vfprintf_r>
    3a10:	000170d0 	.word	0x000170d0

00003a14 <__swsetup_r>:
    3a14:	e92d4038 	push	{r3, r4, r5, lr}
    3a18:	e59f3128 	ldr	r3, [pc, #296]	; 3b48 <__swsetup_r+0x134>
    3a1c:	e5933000 	ldr	r3, [r3]
    3a20:	e3530000 	cmp	r3, #0
    3a24:	e1a05000 	mov	r5, r0
    3a28:	e1a04001 	mov	r4, r1
    3a2c:	0a000002 	beq	3a3c <__swsetup_r+0x28>
    3a30:	e5932038 	ldr	r2, [r3, #56]	; 0x38
    3a34:	e3520000 	cmp	r2, #0
    3a38:	0a00002e 	beq	3af8 <__swsetup_r+0xe4>
    3a3c:	e1d430bc 	ldrh	r3, [r4, #12]
    3a40:	e3130008 	tst	r3, #8
    3a44:	e1a02003 	mov	r2, r3
    3a48:	0a00000c 	beq	3a80 <__swsetup_r+0x6c>
    3a4c:	e5942010 	ldr	r2, [r4, #16]
    3a50:	e3520000 	cmp	r2, #0
    3a54:	0a000012 	beq	3aa4 <__swsetup_r+0x90>
    3a58:	e2131001 	ands	r1, r3, #1
    3a5c:	1a000019 	bne	3ac8 <__swsetup_r+0xb4>
    3a60:	e3130002 	tst	r3, #2
    3a64:	05941014 	ldreq	r1, [r4, #20]
    3a68:	e3520000 	cmp	r2, #0
    3a6c:	e5841008 	str	r1, [r4, #8]
    3a70:	0a00001b 	beq	3ae4 <__swsetup_r+0xd0>
    3a74:	e3a00000 	mov	r0, #0
    3a78:	e8bd4038 	pop	{r3, r4, r5, lr}
    3a7c:	e12fff1e 	bx	lr
    3a80:	e3130010 	tst	r3, #16
    3a84:	0a000019 	beq	3af0 <__swsetup_r+0xdc>
    3a88:	e3120004 	tst	r2, #4
    3a8c:	1a00001c 	bne	3b04 <__swsetup_r+0xf0>
    3a90:	e5942010 	ldr	r2, [r4, #16]
    3a94:	e3833008 	orr	r3, r3, #8
    3a98:	e3520000 	cmp	r2, #0
    3a9c:	e1c430bc 	strh	r3, [r4, #12]
    3aa0:	1affffec 	bne	3a58 <__swsetup_r+0x44>
    3aa4:	e2031d0a 	and	r1, r3, #640	; 0x280
    3aa8:	e3510c02 	cmp	r1, #512	; 0x200
    3aac:	0affffe9 	beq	3a58 <__swsetup_r+0x44>
    3ab0:	e1a00005 	mov	r0, r5
    3ab4:	e1a01004 	mov	r1, r4
    3ab8:	eb000ad3 	bl	660c <__smakebuf_r>
    3abc:	e1d430bc 	ldrh	r3, [r4, #12]
    3ac0:	e5942010 	ldr	r2, [r4, #16]
    3ac4:	eaffffe3 	b	3a58 <__swsetup_r+0x44>
    3ac8:	e5943014 	ldr	r3, [r4, #20]
    3acc:	e3a01000 	mov	r1, #0
    3ad0:	e2633000 	rsb	r3, r3, #0
    3ad4:	e3520000 	cmp	r2, #0
    3ad8:	e5841008 	str	r1, [r4, #8]
    3adc:	e5843018 	str	r3, [r4, #24]
    3ae0:	1affffe3 	bne	3a74 <__swsetup_r+0x60>
    3ae4:	e1d430bc 	ldrh	r3, [r4, #12]
    3ae8:	e3130080 	tst	r3, #128	; 0x80
    3aec:	0affffe0 	beq	3a74 <__swsetup_r+0x60>
    3af0:	e3e00000 	mvn	r0, #0
    3af4:	eaffffdf 	b	3a78 <__swsetup_r+0x64>
    3af8:	e1a00003 	mov	r0, r3
    3afc:	eb0007bb 	bl	59f0 <__sinit>
    3b00:	eaffffcd 	b	3a3c <__swsetup_r+0x28>
    3b04:	e5941030 	ldr	r1, [r4, #48]	; 0x30
    3b08:	e3510000 	cmp	r1, #0
    3b0c:	0a000007 	beq	3b30 <__swsetup_r+0x11c>
    3b10:	e2842040 	add	r2, r4, #64	; 0x40
    3b14:	e1510002 	cmp	r1, r2
    3b18:	0a000002 	beq	3b28 <__swsetup_r+0x114>
    3b1c:	e1a00005 	mov	r0, r5
    3b20:	eb000874 	bl	5cf8 <_free_r>
    3b24:	e1d430bc 	ldrh	r3, [r4, #12]
    3b28:	e3a02000 	mov	r2, #0
    3b2c:	e5842030 	str	r2, [r4, #48]	; 0x30
    3b30:	e5942010 	ldr	r2, [r4, #16]
    3b34:	e3a01000 	mov	r1, #0
    3b38:	e3c33024 	bic	r3, r3, #36	; 0x24
    3b3c:	e5841004 	str	r1, [r4, #4]
    3b40:	e5842000 	str	r2, [r4]
    3b44:	eaffffd2 	b	3a94 <__swsetup_r+0x80>
    3b48:	000170d0 	.word	0x000170d0

00003b4c <__register_exitproc>:
    3b4c:	e59fc0e4 	ldr	r12, [pc, #228]	; 3c38 <__register_exitproc+0xec>
    3b50:	e92d41f0 	push	{r4, r5, r6, r7, r8, lr}
    3b54:	e59c4000 	ldr	r4, [r12]
    3b58:	e594c148 	ldr	r12, [r4, #328]	; 0x148
    3b5c:	e35c0000 	cmp	r12, #0
    3b60:	0284cf53 	addeq	r12, r4, #332	; 0x14c
    3b64:	e59c5004 	ldr	r5, [r12, #4]
    3b68:	0584c148 	streq	r12, [r4, #328]	; 0x148
    3b6c:	e355001f 	cmp	r5, #31
    3b70:	e24dd010 	sub	sp, sp, #16
    3b74:	e1a06000 	mov	r6, r0
    3b78:	da000015 	ble	3bd4 <__register_exitproc+0x88>
    3b7c:	e59f00b8 	ldr	r0, [pc, #184]	; 3c3c <__register_exitproc+0xf0>
    3b80:	e3500000 	cmp	r0, #0
    3b84:	1a000001 	bne	3b90 <__register_exitproc+0x44>
    3b88:	e3e00000 	mvn	r0, #0
    3b8c:	ea000018 	b	3bf4 <__register_exitproc+0xa8>
    3b90:	e3a00e19 	mov	r0, #400	; 0x190
    3b94:	e58d100c 	str	r1, [sp, #12]
    3b98:	e58d2008 	str	r2, [sp, #8]
    3b9c:	e58d3004 	str	r3, [sp, #4]
    3ba0:	e320f000 	nop	{0}
    3ba4:	e250c000 	subs	r12, r0, #0
    3ba8:	e59d100c 	ldr	r1, [sp, #12]
    3bac:	e59d2008 	ldr	r2, [sp, #8]
    3bb0:	e59d3004 	ldr	r3, [sp, #4]
    3bb4:	0afffff3 	beq	3b88 <__register_exitproc+0x3c>
    3bb8:	e5945148 	ldr	r5, [r4, #328]	; 0x148
    3bbc:	e3a00000 	mov	r0, #0
    3bc0:	e58c0004 	str	r0, [r12, #4]
    3bc4:	e58c5000 	str	r5, [r12]
    3bc8:	e584c148 	str	r12, [r4, #328]	; 0x148
    3bcc:	e58c0188 	str	r0, [r12, #392]	; 0x188
    3bd0:	e58c018c 	str	r0, [r12, #396]	; 0x18c
    3bd4:	e3560000 	cmp	r6, #0
    3bd8:	e59c4004 	ldr	r4, [r12, #4]
    3bdc:	1a000007 	bne	3c00 <__register_exitproc+0xb4>
    3be0:	e2843002 	add	r3, r4, #2
    3be4:	e2844001 	add	r4, r4, #1
    3be8:	e78c1103 	str	r1, [r12, r3, lsl #2]
    3bec:	e58c4004 	str	r4, [r12, #4]
    3bf0:	e3a00000 	mov	r0, #0
    3bf4:	e28dd010 	add	sp, sp, #16
    3bf8:	e8bd41f0 	pop	{r4, r5, r6, r7, r8, lr}
    3bfc:	e12fff1e 	bx	lr
    3c00:	e3a00001 	mov	r0, #1
    3c04:	e1a00410 	lsl	r0, r0, r4
    3c08:	e08c8104 	add	r8, r12, r4, lsl #2
    3c0c:	e3560002 	cmp	r6, #2
    3c10:	e59c7188 	ldr	r7, [r12, #392]	; 0x188
    3c14:	e5883108 	str	r3, [r8, #264]	; 0x108
    3c18:	059c318c 	ldreq	r3, [r12, #396]	; 0x18c
    3c1c:	e1877000 	orr	r7, r7, r0
    3c20:	01830000 	orreq	r0, r3, r0
    3c24:	e1a05008 	mov	r5, r8
    3c28:	e5882088 	str	r2, [r8, #136]	; 0x88
    3c2c:	e58c7188 	str	r7, [r12, #392]	; 0x188
    3c30:	058c018c 	streq	r0, [r12, #396]	; 0x18c
    3c34:	eaffffe9 	b	3be0 <__register_exitproc+0x94>
    3c38:	00016e94 	.word	0x00016e94
    3c3c:	00000000 	.word	0x00000000

00003c40 <__call_exitprocs>:
    3c40:	e92d4ff0 	push	{r4, r5, r6, r7, r8, r9, r10, r11, lr}
    3c44:	e59f3168 	ldr	r3, [pc, #360]	; 3db4 <__call_exitprocs+0x174>
    3c48:	e5933000 	ldr	r3, [r3]
    3c4c:	e24dd014 	sub	sp, sp, #20
    3c50:	e58d3004 	str	r3, [sp, #4]
    3c54:	e2833f52 	add	r3, r3, #328	; 0x148
    3c58:	e58d0008 	str	r0, [sp, #8]
    3c5c:	e58d300c 	str	r3, [sp, #12]
    3c60:	e1a07001 	mov	r7, r1
    3c64:	e3a08001 	mov	r8, #1
    3c68:	e59d3004 	ldr	r3, [sp, #4]
    3c6c:	e5936148 	ldr	r6, [r3, #328]	; 0x148
    3c70:	e3560000 	cmp	r6, #0
    3c74:	e59db00c 	ldr	r11, [sp, #12]
    3c78:	0a000033 	beq	3d4c <__call_exitprocs+0x10c>
    3c7c:	e5965004 	ldr	r5, [r6, #4]
    3c80:	e2554001 	subs	r4, r5, #1
    3c84:	5286a088 	addpl	r10, r6, #136	; 0x88
    3c88:	5285501f 	addpl	r5, r5, #31
    3c8c:	508a5105 	addpl	r5, r10, r5, lsl #2
    3c90:	5a000007 	bpl	3cb4 <__call_exitprocs+0x74>
    3c94:	ea000029 	b	3d40 <__call_exitprocs+0x100>
    3c98:	e5953000 	ldr	r3, [r5]
    3c9c:	e1530007 	cmp	r3, r7
    3ca0:	0a000005 	beq	3cbc <__call_exitprocs+0x7c>
    3ca4:	e2444001 	sub	r4, r4, #1
    3ca8:	e3740001 	cmn	r4, #1
    3cac:	e2455004 	sub	r5, r5, #4
    3cb0:	0a000022 	beq	3d40 <__call_exitprocs+0x100>
    3cb4:	e3570000 	cmp	r7, #0
    3cb8:	1afffff6 	bne	3c98 <__call_exitprocs+0x58>
    3cbc:	e5963004 	ldr	r3, [r6, #4]
    3cc0:	e06a2005 	rsb	r2, r10, r5
    3cc4:	e2433001 	sub	r3, r3, #1
    3cc8:	e0862002 	add	r2, r6, r2
    3ccc:	e1530004 	cmp	r3, r4
    3cd0:	e5123078 	ldr	r3, [r2, #-120]	; 0xffffff88
    3cd4:	13a01000 	movne	r1, #0
    3cd8:	05864004 	streq	r4, [r6, #4]
    3cdc:	15021078 	strne	r1, [r2, #-120]	; 0xffffff88
    3ce0:	e3530000 	cmp	r3, #0
    3ce4:	0affffee 	beq	3ca4 <__call_exitprocs+0x64>
    3ce8:	e1a02418 	lsl	r2, r8, r4
    3cec:	e5961188 	ldr	r1, [r6, #392]	; 0x188
    3cf0:	e1120001 	tst	r2, r1
    3cf4:	e5969004 	ldr	r9, [r6, #4]
    3cf8:	0a000016 	beq	3d58 <__call_exitprocs+0x118>
    3cfc:	e596118c 	ldr	r1, [r6, #396]	; 0x18c
    3d00:	e1120001 	tst	r2, r1
    3d04:	1a000016 	bne	3d64 <__call_exitprocs+0x124>
    3d08:	e59d0008 	ldr	r0, [sp, #8]
    3d0c:	e5151080 	ldr	r1, [r5, #-128]	; 0xffffff80
    3d10:	e1a0e00f 	mov	lr, pc
    3d14:	e12fff13 	bx	r3
    3d18:	e5963004 	ldr	r3, [r6, #4]
    3d1c:	e1530009 	cmp	r3, r9
    3d20:	1affffd0 	bne	3c68 <__call_exitprocs+0x28>
    3d24:	e59b3000 	ldr	r3, [r11]
    3d28:	e1530006 	cmp	r3, r6
    3d2c:	1affffcd 	bne	3c68 <__call_exitprocs+0x28>
    3d30:	e2444001 	sub	r4, r4, #1
    3d34:	e3740001 	cmn	r4, #1
    3d38:	e2455004 	sub	r5, r5, #4
    3d3c:	1affffdc 	bne	3cb4 <__call_exitprocs+0x74>
    3d40:	e59f1070 	ldr	r1, [pc, #112]	; 3db8 <__call_exitprocs+0x178>
    3d44:	e3510000 	cmp	r1, #0
    3d48:	1a000009 	bne	3d74 <__call_exitprocs+0x134>
    3d4c:	e28dd014 	add	sp, sp, #20
    3d50:	e8bd4ff0 	pop	{r4, r5, r6, r7, r8, r9, r10, r11, lr}
    3d54:	e12fff1e 	bx	lr
    3d58:	e1a0e00f 	mov	lr, pc
    3d5c:	e12fff13 	bx	r3
    3d60:	eaffffec 	b	3d18 <__call_exitprocs+0xd8>
    3d64:	e5150080 	ldr	r0, [r5, #-128]	; 0xffffff80
    3d68:	e1a0e00f 	mov	lr, pc
    3d6c:	e12fff13 	bx	r3
    3d70:	eaffffe8 	b	3d18 <__call_exitprocs+0xd8>
    3d74:	e5963004 	ldr	r3, [r6, #4]
    3d78:	e3530000 	cmp	r3, #0
    3d7c:	e5963000 	ldr	r3, [r6]
    3d80:	1a000008 	bne	3da8 <__call_exitprocs+0x168>
    3d84:	e3530000 	cmp	r3, #0
    3d88:	0a000006 	beq	3da8 <__call_exitprocs+0x168>
    3d8c:	e1a00006 	mov	r0, r6
    3d90:	e58b3000 	str	r3, [r11]
    3d94:	e320f000 	nop	{0}
    3d98:	e59b6000 	ldr	r6, [r11]
    3d9c:	e3560000 	cmp	r6, #0
    3da0:	1affffb5 	bne	3c7c <__call_exitprocs+0x3c>
    3da4:	eaffffe8 	b	3d4c <__call_exitprocs+0x10c>
    3da8:	e1a0b006 	mov	r11, r6
    3dac:	e1a06003 	mov	r6, r3
    3db0:	eafffff9 	b	3d9c <__call_exitprocs+0x15c>
    3db4:	00016e94 	.word	0x00016e94
    3db8:	00000000 	.word	0x00000000

00003dbc <register_fini>:
    3dbc:	e92d4008 	push	{r3, lr}
    3dc0:	e59f3010 	ldr	r3, [pc, #16]	; 3dd8 <register_fini+0x1c>
    3dc4:	e3530000 	cmp	r3, #0
    3dc8:	159f000c 	ldrne	r0, [pc, #12]	; 3ddc <register_fini+0x20>
    3dcc:	1bfff638 	blne	16b4 <atexit>
    3dd0:	e8bd4008 	pop	{r3, lr}
    3dd4:	e12fff1e 	bx	lr
    3dd8:	00017090 	.word	0x00017090
    3ddc:	00005bb8 	.word	0x00005bb8

00003de0 <quorem>:
    3de0:	e92d4ff8 	push	{r3, r4, r5, r6, r7, r8, r9, r10, r11, lr}
    3de4:	e5903010 	ldr	r3, [r0, #16]
    3de8:	e5916010 	ldr	r6, [r1, #16]
    3dec:	e1560003 	cmp	r6, r3
    3df0:	e1a0a000 	mov	r10, r0
    3df4:	e1a05001 	mov	r5, r1
    3df8:	c3a00000 	movgt	r0, #0
    3dfc:	ca00006d 	bgt	3fb8 <quorem+0x1d8>
    3e00:	e2863003 	add	r3, r6, #3
    3e04:	e1a03103 	lsl	r3, r3, #2
    3e08:	e0819003 	add	r9, r1, r3
    3e0c:	e5991004 	ldr	r1, [r9, #4]
    3e10:	e08a3003 	add	r3, r10, r3
    3e14:	e5930004 	ldr	r0, [r3, #4]
    3e18:	e2811001 	add	r1, r1, #1
    3e1c:	eb001a18 	bl	a684 <__aeabi_uidiv>
    3e20:	e2507000 	subs	r7, r0, #0
    3e24:	e2466001 	sub	r6, r6, #1
    3e28:	e2899004 	add	r9, r9, #4
    3e2c:	e2854014 	add	r4, r5, #20
    3e30:	e28a8014 	add	r8, r10, #20
    3e34:	0a000030 	beq	3efc <quorem+0x11c>
    3e38:	e3a0c000 	mov	r12, #0
    3e3c:	e1a02008 	mov	r2, r8
    3e40:	e1a03004 	mov	r3, r4
    3e44:	e1a0000c 	mov	r0, r12
    3e48:	e493e004 	ldr	lr, [r3], #4
    3e4c:	e1a0b80e 	lsl	r11, lr, #16
    3e50:	e1a0b82b 	lsr	r11, r11, #16
    3e54:	e1a0e82e 	lsr	lr, lr, #16
    3e58:	e02bcb97 	mla	r11, r7, r11, r12
    3e5c:	e00c0e97 	mul	r12, r7, lr
    3e60:	e592e000 	ldr	lr, [r2]
    3e64:	e08cc82b 	add	r12, r12, r11, lsr #16
    3e68:	e1a0180e 	lsl	r1, lr, #16
    3e6c:	e0801821 	add	r1, r0, r1, lsr #16
    3e70:	e1a0b80b 	lsl	r11, r11, #16
    3e74:	e1a0080c 	lsl	r0, r12, #16
    3e78:	e041182b 	sub	r1, r1, r11, lsr #16
    3e7c:	e1a00820 	lsr	r0, r0, #16
    3e80:	e060082e 	rsb	r0, r0, lr, lsr #16
    3e84:	e1a0b801 	lsl	r11, r1, #16
    3e88:	e0800841 	add	r0, r0, r1, asr #16
    3e8c:	e1a0182b 	lsr	r1, r11, #16
    3e90:	e1811800 	orr	r1, r1, r0, lsl #16
    3e94:	e1590003 	cmp	r9, r3
    3e98:	e1a0c82c 	lsr	r12, r12, #16
    3e9c:	e1a00840 	asr	r0, r0, #16
    3ea0:	e4821004 	str	r1, [r2], #4
    3ea4:	2affffe7 	bcs	3e48 <quorem+0x68>
    3ea8:	e2863004 	add	r3, r6, #4
    3eac:	e08a3103 	add	r3, r10, r3, lsl #2
    3eb0:	e5932004 	ldr	r2, [r3, #4]
    3eb4:	e3520000 	cmp	r2, #0
    3eb8:	1a00000f 	bne	3efc <quorem+0x11c>
    3ebc:	e1580003 	cmp	r8, r3
    3ec0:	e2832004 	add	r2, r3, #4
    3ec4:	2a00000b 	bcs	3ef8 <quorem+0x118>
    3ec8:	e5122004 	ldr	r2, [r2, #-4]
    3ecc:	e3520000 	cmp	r2, #0
    3ed0:	1a000008 	bne	3ef8 <quorem+0x118>
    3ed4:	e2433004 	sub	r3, r3, #4
    3ed8:	ea000003 	b	3eec <quorem+0x10c>
    3edc:	e5932000 	ldr	r2, [r3]
    3ee0:	e3520000 	cmp	r2, #0
    3ee4:	e2433004 	sub	r3, r3, #4
    3ee8:	1a000002 	bne	3ef8 <quorem+0x118>
    3eec:	e1580003 	cmp	r8, r3
    3ef0:	e2466001 	sub	r6, r6, #1
    3ef4:	3afffff8 	bcc	3edc <quorem+0xfc>
    3ef8:	e58a6010 	str	r6, [r10, #16]
    3efc:	e1a0000a 	mov	r0, r10
    3f00:	e1a01005 	mov	r1, r5
    3f04:	eb000f1a 	bl	7b74 <__mcmp>
    3f08:	e3500000 	cmp	r0, #0
    3f0c:	ba000028 	blt	3fb4 <quorem+0x1d4>
    3f10:	e2877001 	add	r7, r7, #1
    3f14:	e1a03008 	mov	r3, r8
    3f18:	e3a02000 	mov	r2, #0
    3f1c:	e4945004 	ldr	r5, [r4], #4
    3f20:	e593c000 	ldr	r12, [r3]
    3f24:	e1a01805 	lsl	r1, r5, #16
    3f28:	e1a0080c 	lsl	r0, r12, #16
    3f2c:	e1a01821 	lsr	r1, r1, #16
    3f30:	e0611820 	rsb	r1, r1, r0, lsr #16
    3f34:	e0811002 	add	r1, r1, r2
    3f38:	e1a02825 	lsr	r2, r5, #16
    3f3c:	e062282c 	rsb	r2, r2, r12, lsr #16
    3f40:	e1a00801 	lsl	r0, r1, #16
    3f44:	e0822841 	add	r2, r2, r1, asr #16
    3f48:	e1a01820 	lsr	r1, r0, #16
    3f4c:	e1811802 	orr	r1, r1, r2, lsl #16
    3f50:	e1590004 	cmp	r9, r4
    3f54:	e1a02842 	asr	r2, r2, #16
    3f58:	e4831004 	str	r1, [r3], #4
    3f5c:	2affffee 	bcs	3f1c <quorem+0x13c>
    3f60:	e2863004 	add	r3, r6, #4
    3f64:	e08a3103 	add	r3, r10, r3, lsl #2
    3f68:	e5932004 	ldr	r2, [r3, #4]
    3f6c:	e3520000 	cmp	r2, #0
    3f70:	1a00000f 	bne	3fb4 <quorem+0x1d4>
    3f74:	e1580003 	cmp	r8, r3
    3f78:	e2832004 	add	r2, r3, #4
    3f7c:	2a00000b 	bcs	3fb0 <quorem+0x1d0>
    3f80:	e5122004 	ldr	r2, [r2, #-4]
    3f84:	e3520000 	cmp	r2, #0
    3f88:	1a000008 	bne	3fb0 <quorem+0x1d0>
    3f8c:	e2433004 	sub	r3, r3, #4
    3f90:	ea000003 	b	3fa4 <quorem+0x1c4>
    3f94:	e5932000 	ldr	r2, [r3]
    3f98:	e3520000 	cmp	r2, #0
    3f9c:	e2433004 	sub	r3, r3, #4
    3fa0:	1a000002 	bne	3fb0 <quorem+0x1d0>
    3fa4:	e1580003 	cmp	r8, r3
    3fa8:	e2466001 	sub	r6, r6, #1
    3fac:	3afffff8 	bcc	3f94 <quorem+0x1b4>
    3fb0:	e58a6010 	str	r6, [r10, #16]
    3fb4:	e1a00007 	mov	r0, r7
    3fb8:	e8bd4ff8 	pop	{r3, r4, r5, r6, r7, r8, r9, r10, r11, lr}
    3fbc:	e12fff1e 	bx	lr

00003fc0 <_dtoa_r>:
    3fc0:	e92d4ff0 	push	{r4, r5, r6, r7, r8, r9, r10, r11, lr}
    3fc4:	e5901040 	ldr	r1, [r0, #64]	; 0x40
    3fc8:	e24dd07c 	sub	sp, sp, #124	; 0x7c
    3fcc:	e3510000 	cmp	r1, #0
    3fd0:	e1a06000 	mov	r6, r0
    3fd4:	e59d40ac 	ldr	r4, [sp, #172]	; 0xac
    3fd8:	e58d2010 	str	r2, [sp, #16]
    3fdc:	e58d3014 	str	r3, [sp, #20]
    3fe0:	0a000007 	beq	4004 <_dtoa_r+0x44>
    3fe4:	e5903044 	ldr	r3, [r0, #68]	; 0x44
    3fe8:	e3a02001 	mov	r2, #1
    3fec:	e1a02312 	lsl	r2, r2, r3
    3ff0:	e5813004 	str	r3, [r1, #4]
    3ff4:	e5812008 	str	r2, [r1, #8]
    3ff8:	eb000d2a 	bl	74a8 <_Bfree>
    3ffc:	e3a03000 	mov	r3, #0
    4000:	e5863040 	str	r3, [r6, #64]	; 0x40
    4004:	e59da014 	ldr	r10, [sp, #20]
    4008:	e35a0000 	cmp	r10, #0
    400c:	b3a03001 	movlt	r3, #1
    4010:	a3a03000 	movge	r3, #0
    4014:	b5843000 	strlt	r3, [r4]
    4018:	a5843000 	strge	r3, [r4]
    401c:	e59f3570 	ldr	r3, [pc, #1392]	; 4594 <_dtoa_r+0x5d4>
    4020:	b3caa102 	biclt	r10, r10, #-2147483648	; 0x80000000
    4024:	e59f2568 	ldr	r2, [pc, #1384]	; 4594 <_dtoa_r+0x5d4>
    4028:	b1a0100a 	movlt	r1, r10
    402c:	e00a3003 	and	r3, r10, r3
    4030:	b58d1014 	strlt	r1, [sp, #20]
    4034:	e1530002 	cmp	r3, r2
    4038:	0a000016 	beq	4098 <_dtoa_r+0xd8>
    403c:	e28d5010 	add	r5, sp, #16
    4040:	e8950030 	ldm	r5, {r4, r5}
    4044:	e3a02000 	mov	r2, #0
    4048:	e1a00004 	mov	r0, r4
    404c:	e1a01005 	mov	r1, r5
    4050:	e3a03000 	mov	r3, #0
    4054:	eb001c31 	bl	b120 <__aeabi_dcmpeq>
    4058:	e3500000 	cmp	r0, #0
    405c:	0a00001e 	beq	40dc <_dtoa_r+0x11c>
    4060:	e59d40b0 	ldr	r4, [sp, #176]	; 0xb0
    4064:	e59dc0a8 	ldr	r12, [sp, #168]	; 0xa8
    4068:	e3a03001 	mov	r3, #1
    406c:	e3540000 	cmp	r4, #0
    4070:	e58c3000 	str	r3, [r12]
    4074:	0a00009a 	beq	42e4 <_dtoa_r+0x324>
    4078:	e59f44e8 	ldr	r4, [pc, #1256]	; 4568 <_dtoa_r+0x5a8>
    407c:	e59dc0b0 	ldr	r12, [sp, #176]	; 0xb0
    4080:	e58c4000 	str	r4, [r12]
    4084:	e2444001 	sub	r4, r4, #1
    4088:	e1a00004 	mov	r0, r4
    408c:	e28dd07c 	add	sp, sp, #124	; 0x7c
    4090:	e8bd4ff0 	pop	{r4, r5, r6, r7, r8, r9, r10, r11, lr}
    4094:	e12fff1e 	bx	lr
    4098:	e59d2010 	ldr	r2, [sp, #16]
    409c:	e59f34c8 	ldr	r3, [pc, #1224]	; 456c <_dtoa_r+0x5ac>
    40a0:	e59d40a8 	ldr	r4, [sp, #168]	; 0xa8
    40a4:	e3520000 	cmp	r2, #0
    40a8:	e5843000 	str	r3, [r4]
    40ac:	0a000079 	beq	4298 <_dtoa_r+0x2d8>
    40b0:	e59f44b8 	ldr	r4, [pc, #1208]	; 4570 <_dtoa_r+0x5b0>
    40b4:	e59dc0b0 	ldr	r12, [sp, #176]	; 0xb0
    40b8:	e35c0000 	cmp	r12, #0
    40bc:	0afffff1 	beq	4088 <_dtoa_r+0xc8>
    40c0:	e5d43003 	ldrb	r3, [r4, #3]
    40c4:	e59dc0b0 	ldr	r12, [sp, #176]	; 0xb0
    40c8:	e3530000 	cmp	r3, #0
    40cc:	12843008 	addne	r3, r4, #8
    40d0:	02843003 	addeq	r3, r4, #3
    40d4:	e58c3000 	str	r3, [r12]
    40d8:	eaffffea 	b	4088 <_dtoa_r+0xc8>
    40dc:	e28d3074 	add	r3, sp, #116	; 0x74
    40e0:	e58d3000 	str	r3, [sp]
    40e4:	e28d3070 	add	r3, sp, #112	; 0x70
    40e8:	e58d3004 	str	r3, [sp, #4]
    40ec:	e1a00006 	mov	r0, r6
    40f0:	e1a02004 	mov	r2, r4
    40f4:	e1a03005 	mov	r3, r5
    40f8:	eb000f55 	bl	7e54 <__d2b>
    40fc:	e1a0708a 	lsl	r7, r10, #1
    4100:	e1b07aa7 	lsrs	r7, r7, #21
    4104:	e1a0b000 	mov	r11, r0
    4108:	1a00006a 	bne	42b8 <_dtoa_r+0x2f8>
    410c:	e59d8070 	ldr	r8, [sp, #112]	; 0x70
    4110:	e59d7074 	ldr	r7, [sp, #116]	; 0x74
    4114:	e3e03e41 	mvn	r3, #1040	; 0x410
    4118:	e0887007 	add	r7, r8, r7
    411c:	e1570003 	cmp	r7, r3
    4120:	ba0001da 	blt	4890 <_dtoa_r+0x8d0>
    4124:	e2870e41 	add	r0, r7, #1040	; 0x410
    4128:	e59dc010 	ldr	r12, [sp, #16]
    412c:	e2800002 	add	r0, r0, #2
    4130:	e1a0003c 	lsr	r0, r12, r0
    4134:	e283301f 	add	r3, r3, #31
    4138:	e0673003 	rsb	r3, r7, r3
    413c:	e180031a 	orr	r0, r0, r10, lsl r3
    4140:	eb001a5c 	bl	aab8 <__aeabi_ui2d>
    4144:	e3a04001 	mov	r4, #1
    4148:	e58d4060 	str	r4, [sp, #96]	; 0x60
    414c:	e241161f 	sub	r1, r1, #32505856	; 0x1f00000
    4150:	e2477001 	sub	r7, r7, #1
    4154:	e3a02000 	mov	r2, #0
    4158:	e59f3414 	ldr	r3, [pc, #1044]	; 4574 <_dtoa_r+0x5b4>
    415c:	eb001990 	bl	a7a4 <__aeabi_dsub>
    4160:	e28f3ffa 	add	r3, pc, #1000	; 0x3e8
    4164:	e893000c 	ldm	r3, {r2, r3}
    4168:	eb001a92 	bl	abb8 <__aeabi_dmul>
    416c:	e28f3ff9 	add	r3, pc, #996	; 0x3e4
    4170:	e893000c 	ldm	r3, {r2, r3}
    4174:	eb00198b 	bl	a7a8 <__adddf3>
    4178:	e1a04000 	mov	r4, r0
    417c:	e1a00007 	mov	r0, r7
    4180:	e1a05001 	mov	r5, r1
    4184:	eb001a54 	bl	aadc <__aeabi_i2d>
    4188:	e28f3e3d 	add	r3, pc, #976	; 0x3d0
    418c:	e893000c 	ldm	r3, {r2, r3}
    4190:	eb001a88 	bl	abb8 <__aeabi_dmul>
    4194:	e1a02000 	mov	r2, r0
    4198:	e1a03001 	mov	r3, r1
    419c:	e1a00004 	mov	r0, r4
    41a0:	e1a01005 	mov	r1, r5
    41a4:	eb00197f 	bl	a7a8 <__adddf3>
    41a8:	e1a04000 	mov	r4, r0
    41ac:	e1a05001 	mov	r5, r1
    41b0:	eb001bf8 	bl	b198 <__aeabi_d2iz>
    41b4:	e1a01005 	mov	r1, r5
    41b8:	e1a09000 	mov	r9, r0
    41bc:	e3a02000 	mov	r2, #0
    41c0:	e1a00004 	mov	r0, r4
    41c4:	e3a03000 	mov	r3, #0
    41c8:	eb001bda 	bl	b138 <__aeabi_dcmplt>
    41cc:	e3500000 	cmp	r0, #0
    41d0:	1a0001a6 	bne	4870 <_dtoa_r+0x8b0>
    41d4:	e3590016 	cmp	r9, #22
    41d8:	83a04001 	movhi	r4, #1
    41dc:	858d404c 	strhi	r4, [sp, #76]	; 0x4c
    41e0:	8a00000a 	bhi	4210 <_dtoa_r+0x250>
    41e4:	e59f33a0 	ldr	r3, [pc, #928]	; 458c <_dtoa_r+0x5cc>
    41e8:	e0833189 	add	r3, r3, r9, lsl #3
    41ec:	e8930003 	ldm	r3, {r0, r1}
    41f0:	e28d3010 	add	r3, sp, #16
    41f4:	e893000c 	ldm	r3, {r2, r3}
    41f8:	eb001be0 	bl	b180 <__aeabi_dcmpgt>
    41fc:	e3500000 	cmp	r0, #0
    4200:	13a0c000 	movne	r12, #0
    4204:	158dc04c 	strne	r12, [sp, #76]	; 0x4c
    4208:	058d004c 	streq	r0, [sp, #76]	; 0x4c
    420c:	12499001 	subne	r9, r9, #1
    4210:	e0677008 	rsb	r7, r7, r8
    4214:	e2577001 	subs	r7, r7, #1
    4218:	42677000 	rsbmi	r7, r7, #0
    421c:	43a0c000 	movmi	r12, #0
    4220:	53a04000 	movpl	r4, #0
    4224:	458d702c 	strmi	r7, [sp, #44]	; 0x2c
    4228:	458dc028 	strmi	r12, [sp, #40]	; 0x28
    422c:	558d7028 	strpl	r7, [sp, #40]	; 0x28
    4230:	558d402c 	strpl	r4, [sp, #44]	; 0x2c
    4234:	e3590000 	cmp	r9, #0
    4238:	ba000184 	blt	4850 <_dtoa_r+0x890>
    423c:	e59dc028 	ldr	r12, [sp, #40]	; 0x28
    4240:	e3a04000 	mov	r4, #0
    4244:	e08cc009 	add	r12, r12, r9
    4248:	e58dc028 	str	r12, [sp, #40]	; 0x28
    424c:	e58d9048 	str	r9, [sp, #72]	; 0x48
    4250:	e58d403c 	str	r4, [sp, #60]	; 0x3c
    4254:	e59d40a0 	ldr	r4, [sp, #160]	; 0xa0
    4258:	e3540009 	cmp	r4, #9
    425c:	8a000022 	bhi	42ec <_dtoa_r+0x32c>
    4260:	e3540005 	cmp	r4, #5
    4264:	c2444004 	subgt	r4, r4, #4
    4268:	c58d40a0 	strgt	r4, [sp, #160]	; 0xa0
    426c:	e59dc0a0 	ldr	r12, [sp, #160]	; 0xa0
    4270:	e24c3002 	sub	r3, r12, #2
    4274:	c3a04000 	movgt	r4, #0
    4278:	d3a04001 	movle	r4, #1
    427c:	e3530003 	cmp	r3, #3
    4280:	979ff103 	ldrls	pc, [pc, r3, lsl #2]
    4284:	ea00001a 	b	42f4 <_dtoa_r+0x334>
    4288:	00004928 	.word	0x00004928
    428c:	00004cc0 	.word	0x00004cc0
    4290:	00004cb4 	.word	0x00004cb4
    4294:	00004c80 	.word	0x00004c80
    4298:	e3ca44ff 	bic	r4, r10, #-16777216	; 0xff000000
    429c:	e3c4460f 	bic	r4, r4, #15728640	; 0xf00000
    42a0:	e59f32c8 	ldr	r3, [pc, #712]	; 4570 <_dtoa_r+0x5b0>
    42a4:	e59f22cc 	ldr	r2, [pc, #716]	; 4578 <_dtoa_r+0x5b8>
    42a8:	e3540000 	cmp	r4, #0
    42ac:	01a04002 	moveq	r4, r2
    42b0:	11a04003 	movne	r4, r3
    42b4:	eaffff7e 	b	40b4 <_dtoa_r+0xf4>
    42b8:	e3c534ff 	bic	r3, r5, #-16777216	; 0xff000000
    42bc:	e3c3360f 	bic	r3, r3, #15728640	; 0xf00000
    42c0:	e1a00004 	mov	r0, r4
    42c4:	e38335ff 	orr	r3, r3, #1069547520	; 0x3fc00000
    42c8:	e2477fff 	sub	r7, r7, #1020	; 0x3fc
    42cc:	e3a04000 	mov	r4, #0
    42d0:	e3831603 	orr	r1, r3, #3145728	; 0x300000
    42d4:	e2477003 	sub	r7, r7, #3
    42d8:	e59d8070 	ldr	r8, [sp, #112]	; 0x70
    42dc:	e58d4060 	str	r4, [sp, #96]	; 0x60
    42e0:	eaffff9b 	b	4154 <_dtoa_r+0x194>
    42e4:	e59f4290 	ldr	r4, [pc, #656]	; 457c <_dtoa_r+0x5bc>
    42e8:	eaffff66 	b	4088 <_dtoa_r+0xc8>
    42ec:	e3a04000 	mov	r4, #0
    42f0:	e58d40a0 	str	r4, [sp, #160]	; 0xa0
    42f4:	e3a04000 	mov	r4, #0
    42f8:	e5864044 	str	r4, [r6, #68]	; 0x44
    42fc:	e1a00006 	mov	r0, r6
    4300:	e1a01004 	mov	r1, r4
    4304:	eb000c44 	bl	741c <_Balloc>
    4308:	e3e0c000 	mvn	r12, #0
    430c:	e58dc044 	str	r12, [sp, #68]	; 0x44
    4310:	e58dc038 	str	r12, [sp, #56]	; 0x38
    4314:	e3a0c001 	mov	r12, #1
    4318:	e58d0024 	str	r0, [sp, #36]	; 0x24
    431c:	e5860040 	str	r0, [r6, #64]	; 0x40
    4320:	e58dc040 	str	r12, [sp, #64]	; 0x40
    4324:	e58d40a4 	str	r4, [sp, #164]	; 0xa4
    4328:	e59d3074 	ldr	r3, [sp, #116]	; 0x74
    432c:	e3530000 	cmp	r3, #0
    4330:	ba0000ab 	blt	45e4 <_dtoa_r+0x624>
    4334:	e359000e 	cmp	r9, #14
    4338:	ca0000a9 	bgt	45e4 <_dtoa_r+0x624>
    433c:	e59d40a4 	ldr	r4, [sp, #164]	; 0xa4
    4340:	e59dc038 	ldr	r12, [sp, #56]	; 0x38
    4344:	e59f3240 	ldr	r3, [pc, #576]	; 458c <_dtoa_r+0x5cc>
    4348:	e1a02fa4 	lsr	r2, r4, #31
    434c:	e35c0000 	cmp	r12, #0
    4350:	c3a02000 	movgt	r2, #0
    4354:	d2022001 	andle	r2, r2, #1
    4358:	e0833189 	add	r3, r3, r9, lsl #3
    435c:	e3520000 	cmp	r2, #0
    4360:	e8930006 	ldm	r3, {r1, r2}
    4364:	e58d1018 	str	r1, [sp, #24]
    4368:	e58d201c 	str	r2, [sp, #28]
    436c:	1a000347 	bne	5090 <_dtoa_r+0x10d0>
    4370:	e28d5010 	add	r5, sp, #16
    4374:	e8950030 	ldm	r5, {r4, r5}
    4378:	e1a03002 	mov	r3, r2
    437c:	e1a00004 	mov	r0, r4
    4380:	e1a02001 	mov	r2, r1
    4384:	e1a01005 	mov	r1, r5
    4388:	eb001aae 	bl	ae48 <__aeabi_ddiv>
    438c:	eb001b81 	bl	b198 <__aeabi_d2iz>
    4390:	e1a07000 	mov	r7, r0
    4394:	eb0019d0 	bl	aadc <__aeabi_i2d>
    4398:	e28d3018 	add	r3, sp, #24
    439c:	e893000c 	ldm	r3, {r2, r3}
    43a0:	eb001a04 	bl	abb8 <__aeabi_dmul>
    43a4:	e1a03001 	mov	r3, r1
    43a8:	e1a02000 	mov	r2, r0
    43ac:	e1a01005 	mov	r1, r5
    43b0:	e1a00004 	mov	r0, r4
    43b4:	eb0018fa 	bl	a7a4 <__aeabi_dsub>
    43b8:	e59dc024 	ldr	r12, [sp, #36]	; 0x24
    43bc:	e2873030 	add	r3, r7, #48	; 0x30
    43c0:	e4cc3001 	strb	r3, [r12], #1
    43c4:	e58dc030 	str	r12, [sp, #48]	; 0x30
    43c8:	e59dc038 	ldr	r12, [sp, #56]	; 0x38
    43cc:	e35c0001 	cmp	r12, #1
    43d0:	e1a04000 	mov	r4, r0
    43d4:	e1a05001 	mov	r5, r1
    43d8:	e59dc030 	ldr	r12, [sp, #48]	; 0x30
    43dc:	0a000039 	beq	44c8 <_dtoa_r+0x508>
    43e0:	e3a02000 	mov	r2, #0
    43e4:	e59f31ac 	ldr	r3, [pc, #428]	; 4598 <_dtoa_r+0x5d8>
    43e8:	eb0019f2 	bl	abb8 <__aeabi_dmul>
    43ec:	e3a02000 	mov	r2, #0
    43f0:	e3a03000 	mov	r3, #0
    43f4:	e1a04000 	mov	r4, r0
    43f8:	e1a05001 	mov	r5, r1
    43fc:	eb001b47 	bl	b120 <__aeabi_dcmpeq>
    4400:	e3500000 	cmp	r0, #0
    4404:	1a00047f 	bne	5608 <_dtoa_r+0x1648>
    4408:	e59dc024 	ldr	r12, [sp, #36]	; 0x24
    440c:	e59d1038 	ldr	r1, [sp, #56]	; 0x38
    4410:	e08c8001 	add	r8, r12, r1
    4414:	e58d9020 	str	r9, [sp, #32]
    4418:	e58d8010 	str	r8, [sp, #16]
    441c:	e28ca002 	add	r10, r12, #2
    4420:	e28d9018 	add	r9, sp, #24
    4424:	e8990300 	ldm	r9, {r8, r9}
    4428:	e58d6028 	str	r6, [sp, #40]	; 0x28
    442c:	ea000008 	b	4454 <_dtoa_r+0x494>
    4430:	eb0019e0 	bl	abb8 <__aeabi_dmul>
    4434:	e3a02000 	mov	r2, #0
    4438:	e3a03000 	mov	r3, #0
    443c:	e1a04000 	mov	r4, r0
    4440:	e1a05001 	mov	r5, r1
    4444:	eb001b35 	bl	b120 <__aeabi_dcmpeq>
    4448:	e3500000 	cmp	r0, #0
    444c:	e28aa001 	add	r10, r10, #1
    4450:	1a0003af 	bne	5314 <_dtoa_r+0x1354>
    4454:	e1a02008 	mov	r2, r8
    4458:	e1a03009 	mov	r3, r9
    445c:	e1a00004 	mov	r0, r4
    4460:	e1a01005 	mov	r1, r5
    4464:	eb001a77 	bl	ae48 <__aeabi_ddiv>
    4468:	eb001b4a 	bl	b198 <__aeabi_d2iz>
    446c:	e1a07000 	mov	r7, r0
    4470:	eb001999 	bl	aadc <__aeabi_i2d>
    4474:	e1a02008 	mov	r2, r8
    4478:	e1a03009 	mov	r3, r9
    447c:	eb0019cd 	bl	abb8 <__aeabi_dmul>
    4480:	e1a02000 	mov	r2, r0
    4484:	e1a03001 	mov	r3, r1
    4488:	e1a00004 	mov	r0, r4
    448c:	e1a01005 	mov	r1, r5
    4490:	eb0018c3 	bl	a7a4 <__aeabi_dsub>
    4494:	e59dc010 	ldr	r12, [sp, #16]
    4498:	e15a000c 	cmp	r10, r12
    449c:	e287c030 	add	r12, r7, #48	; 0x30
    44a0:	e1a04000 	mov	r4, r0
    44a4:	e1a05001 	mov	r5, r1
    44a8:	e3a02000 	mov	r2, #0
    44ac:	e59f30e4 	ldr	r3, [pc, #228]	; 4598 <_dtoa_r+0x5d8>
    44b0:	e54ac001 	strb	r12, [r10, #-1]
    44b4:	e1a0600a 	mov	r6, r10
    44b8:	1affffdc 	bne	4430 <_dtoa_r+0x470>
    44bc:	e59d9020 	ldr	r9, [sp, #32]
    44c0:	e59d6028 	ldr	r6, [sp, #40]	; 0x28
    44c4:	e1a0c00a 	mov	r12, r10
    44c8:	e1a02004 	mov	r2, r4
    44cc:	e1a03005 	mov	r3, r5
    44d0:	e1a00004 	mov	r0, r4
    44d4:	e1a01005 	mov	r1, r5
    44d8:	e58dc008 	str	r12, [sp, #8]
    44dc:	eb0018b1 	bl	a7a8 <__adddf3>
    44e0:	e1a04000 	mov	r4, r0
    44e4:	e1a05001 	mov	r5, r1
    44e8:	e1a02004 	mov	r2, r4
    44ec:	e28d1018 	add	r1, sp, #24
    44f0:	e8910003 	ldm	r1, {r0, r1}
    44f4:	e1a03005 	mov	r3, r5
    44f8:	eb001b0e 	bl	b138 <__aeabi_dcmplt>
    44fc:	e3500000 	cmp	r0, #0
    4500:	e59dc008 	ldr	r12, [sp, #8]
    4504:	1a00000a 	bne	4534 <_dtoa_r+0x574>
    4508:	e28d1018 	add	r1, sp, #24
    450c:	e8910003 	ldm	r1, {r0, r1}
    4510:	e1a02004 	mov	r2, r4
    4514:	e1a03005 	mov	r3, r5
    4518:	e58dc008 	str	r12, [sp, #8]
    451c:	eb001aff 	bl	b120 <__aeabi_dcmpeq>
    4520:	e3500000 	cmp	r0, #0
    4524:	e59dc008 	ldr	r12, [sp, #8]
    4528:	0a00037c 	beq	5320 <_dtoa_r+0x1360>
    452c:	e3170001 	tst	r7, #1
    4530:	0a00037a 	beq	5320 <_dtoa_r+0x1360>
    4534:	e55c8001 	ldrb	r8, [r12, #-1]
    4538:	e59d4024 	ldr	r4, [sp, #36]	; 0x24
    453c:	e58d9064 	str	r9, [sp, #100]	; 0x64
    4540:	e1a0900c 	mov	r9, r12
    4544:	e59d1030 	ldr	r1, [sp, #48]	; 0x30
    4548:	ea000017 	b	45ac <_dtoa_r+0x5ec>
    454c:	e1a00000 	nop			; (mov r0, r0)
    4550:	636f4361 	.word	0x636f4361
    4554:	3fd287a7 	.word	0x3fd287a7
    4558:	8b60c8b3 	.word	0x8b60c8b3
    455c:	3fc68a28 	.word	0x3fc68a28
    4560:	509f79fb 	.word	0x509f79fb
    4564:	3fd34413 	.word	0x3fd34413
    4568:	00016f01 	.word	0x00016f01
    456c:	0000270f 	.word	0x0000270f
    4570:	00016f10 	.word	0x00016f10
    4574:	3ff80000 	.word	0x3ff80000
    4578:	00016f04 	.word	0x00016f04
    457c:	00016f00 	.word	0x00016f00
    4580:	fffffbee 	.word	0xfffffbee
    4584:	3ff00000 	.word	0x3ff00000
    4588:	00017020 	.word	0x00017020
    458c:	00016f30 	.word	0x00016f30
    4590:	40140000 	.word	0x40140000
    4594:	7ff00000 	.word	0x7ff00000
    4598:	40240000 	.word	0x40240000
    459c:	401c0000 	.word	0x401c0000
    45a0:	3fe00000 	.word	0x3fe00000
    45a4:	e5598002 	ldrb	r8, [r9, #-2]
    45a8:	e1a09003 	mov	r9, r3
    45ac:	e3580039 	cmp	r8, #57	; 0x39
    45b0:	e1a02009 	mov	r2, r9
    45b4:	e2493001 	sub	r3, r9, #1
    45b8:	1a0003c2 	bne	54c8 <_dtoa_r+0x1508>
    45bc:	e1590001 	cmp	r9, r1
    45c0:	1afffff7 	bne	45a4 <_dtoa_r+0x5e4>
    45c4:	e58d2024 	str	r2, [sp, #36]	; 0x24
    45c8:	e59dc064 	ldr	r12, [sp, #100]	; 0x64
    45cc:	e3a02030 	mov	r2, #48	; 0x30
    45d0:	e5c32000 	strb	r2, [r3]
    45d4:	e28c9001 	add	r9, r12, #1
    45d8:	e3a08031 	mov	r8, #49	; 0x31
    45dc:	e5c38000 	strb	r8, [r3]
    45e0:	ea00008b 	b	4814 <_dtoa_r+0x854>
    45e4:	e59d4040 	ldr	r4, [sp, #64]	; 0x40
    45e8:	e3540000 	cmp	r4, #0
    45ec:	1a0000ac 	bne	48a4 <_dtoa_r+0x8e4>
    45f0:	e59d503c 	ldr	r5, [sp, #60]	; 0x3c
    45f4:	e59d402c 	ldr	r4, [sp, #44]	; 0x2c
    45f8:	e59da040 	ldr	r10, [sp, #64]	; 0x40
    45fc:	e59dc028 	ldr	r12, [sp, #40]	; 0x28
    4600:	e35c0000 	cmp	r12, #0
    4604:	c3540000 	cmpgt	r4, #0
    4608:	da000009 	ble	4634 <_dtoa_r+0x674>
    460c:	e1a0300c 	mov	r3, r12
    4610:	e59dc02c 	ldr	r12, [sp, #44]	; 0x2c
    4614:	e1530004 	cmp	r3, r4
    4618:	a1a03004 	movge	r3, r4
    461c:	e063c00c 	rsb	r12, r3, r12
    4620:	e58dc02c 	str	r12, [sp, #44]	; 0x2c
    4624:	e59dc028 	ldr	r12, [sp, #40]	; 0x28
    4628:	e063c00c 	rsb	r12, r3, r12
    462c:	e58dc028 	str	r12, [sp, #40]	; 0x28
    4630:	e0634004 	rsb	r4, r3, r4
    4634:	e59dc03c 	ldr	r12, [sp, #60]	; 0x3c
    4638:	e35c0000 	cmp	r12, #0
    463c:	da000015 	ble	4698 <_dtoa_r+0x6d8>
    4640:	e59dc040 	ldr	r12, [sp, #64]	; 0x40
    4644:	e35c0000 	cmp	r12, #0
    4648:	0a00032b 	beq	52fc <_dtoa_r+0x133c>
    464c:	e3550000 	cmp	r5, #0
    4650:	da00000d 	ble	468c <_dtoa_r+0x6cc>
    4654:	e1a0100a 	mov	r1, r10
    4658:	e1a02005 	mov	r2, r5
    465c:	e1a00006 	mov	r0, r6
    4660:	eb000cc5 	bl	797c <__pow5mult>
    4664:	e1a0a000 	mov	r10, r0
    4668:	e1a0200b 	mov	r2, r11
    466c:	e1a0100a 	mov	r1, r10
    4670:	e1a00006 	mov	r0, r6
    4674:	eb000c47 	bl	7798 <__multiply>
    4678:	e1a0100b 	mov	r1, r11
    467c:	e1a07000 	mov	r7, r0
    4680:	e1a00006 	mov	r0, r6
    4684:	eb000b87 	bl	74a8 <_Bfree>
    4688:	e1a0b007 	mov	r11, r7
    468c:	e59dc03c 	ldr	r12, [sp, #60]	; 0x3c
    4690:	e05c2005 	subs	r2, r12, r5
    4694:	1a00035d 	bne	5410 <_dtoa_r+0x1450>
    4698:	e1a00006 	mov	r0, r6
    469c:	e3a01001 	mov	r1, #1
    46a0:	eb000c33 	bl	7774 <__i2b>
    46a4:	e59dc048 	ldr	r12, [sp, #72]	; 0x48
    46a8:	e35c0000 	cmp	r12, #0
    46ac:	e1a07000 	mov	r7, r0
    46b0:	da000004 	ble	46c8 <_dtoa_r+0x708>
    46b4:	e1a01007 	mov	r1, r7
    46b8:	e1a00006 	mov	r0, r6
    46bc:	e1a0200c 	mov	r2, r12
    46c0:	eb000cad 	bl	797c <__pow5mult>
    46c4:	e1a07000 	mov	r7, r0
    46c8:	e59dc0a0 	ldr	r12, [sp, #160]	; 0xa0
    46cc:	e35c0001 	cmp	r12, #1
    46d0:	da00027e 	ble	50d0 <_dtoa_r+0x1110>
    46d4:	e3a05000 	mov	r5, #0
    46d8:	e59dc048 	ldr	r12, [sp, #72]	; 0x48
    46dc:	e35c0000 	cmp	r12, #0
    46e0:	03a00001 	moveq	r0, #1
    46e4:	1a000247 	bne	5008 <_dtoa_r+0x1048>
    46e8:	e59dc028 	ldr	r12, [sp, #40]	; 0x28
    46ec:	e080300c 	add	r3, r0, r12
    46f0:	e213301f 	ands	r3, r3, #31
    46f4:	0a0001d4 	beq	4e4c <_dtoa_r+0xe8c>
    46f8:	e2632020 	rsb	r2, r3, #32
    46fc:	e3520004 	cmp	r2, #4
    4700:	da0003dc 	ble	5678 <_dtoa_r+0x16b8>
    4704:	e263301c 	rsb	r3, r3, #28
    4708:	e59dc02c 	ldr	r12, [sp, #44]	; 0x2c
    470c:	e08cc003 	add	r12, r12, r3
    4710:	e58dc02c 	str	r12, [sp, #44]	; 0x2c
    4714:	e59dc028 	ldr	r12, [sp, #40]	; 0x28
    4718:	e08cc003 	add	r12, r12, r3
    471c:	e58dc028 	str	r12, [sp, #40]	; 0x28
    4720:	e0844003 	add	r4, r4, r3
    4724:	e59dc02c 	ldr	r12, [sp, #44]	; 0x2c
    4728:	e35c0000 	cmp	r12, #0
    472c:	da000004 	ble	4744 <_dtoa_r+0x784>
    4730:	e1a0100b 	mov	r1, r11
    4734:	e1a00006 	mov	r0, r6
    4738:	e1a0200c 	mov	r2, r12
    473c:	eb000ccb 	bl	7a70 <__lshift>
    4740:	e1a0b000 	mov	r11, r0
    4744:	e59dc028 	ldr	r12, [sp, #40]	; 0x28
    4748:	e35c0000 	cmp	r12, #0
    474c:	da000004 	ble	4764 <_dtoa_r+0x7a4>
    4750:	e1a01007 	mov	r1, r7
    4754:	e1a00006 	mov	r0, r6
    4758:	e1a0200c 	mov	r2, r12
    475c:	eb000cc3 	bl	7a70 <__lshift>
    4760:	e1a07000 	mov	r7, r0
    4764:	e59dc04c 	ldr	r12, [sp, #76]	; 0x4c
    4768:	e35c0000 	cmp	r12, #0
    476c:	1a00022b 	bne	5020 <_dtoa_r+0x1060>
    4770:	e59dc0a0 	ldr	r12, [sp, #160]	; 0xa0
    4774:	e59d1038 	ldr	r1, [sp, #56]	; 0x38
    4778:	e35c0002 	cmp	r12, #2
    477c:	d3a03000 	movle	r3, #0
    4780:	c3a03001 	movgt	r3, #1
    4784:	e3510000 	cmp	r1, #0
    4788:	c3a03000 	movgt	r3, #0
    478c:	e3530000 	cmp	r3, #0
    4790:	0a000170 	beq	4d58 <_dtoa_r+0xd98>
    4794:	e59d4038 	ldr	r4, [sp, #56]	; 0x38
    4798:	e3540000 	cmp	r4, #0
    479c:	1a000168 	bne	4d44 <_dtoa_r+0xd84>
    47a0:	e1a01007 	mov	r1, r7
    47a4:	e3a02005 	mov	r2, #5
    47a8:	e1a03004 	mov	r3, r4
    47ac:	e1a00006 	mov	r0, r6
    47b0:	eb000b43 	bl	74c4 <__multadd>
    47b4:	e1a07000 	mov	r7, r0
    47b8:	e1a01007 	mov	r1, r7
    47bc:	e1a0000b 	mov	r0, r11
    47c0:	eb000ceb 	bl	7b74 <__mcmp>
    47c4:	e3500000 	cmp	r0, #0
    47c8:	da00015d 	ble	4d44 <_dtoa_r+0xd84>
    47cc:	e59d3024 	ldr	r3, [sp, #36]	; 0x24
    47d0:	e3a02031 	mov	r2, #49	; 0x31
    47d4:	e4c32001 	strb	r2, [r3], #1
    47d8:	e59d4024 	ldr	r4, [sp, #36]	; 0x24
    47dc:	e58d3024 	str	r3, [sp, #36]	; 0x24
    47e0:	e2899001 	add	r9, r9, #1
    47e4:	e3a05000 	mov	r5, #0
    47e8:	e1a00006 	mov	r0, r6
    47ec:	e1a01007 	mov	r1, r7
    47f0:	eb000b2c 	bl	74a8 <_Bfree>
    47f4:	e35a0000 	cmp	r10, #0
    47f8:	0a000005 	beq	4814 <_dtoa_r+0x854>
    47fc:	e155000a 	cmp	r5, r10
    4800:	13550000 	cmpne	r5, #0
    4804:	1a000198 	bne	4e6c <_dtoa_r+0xeac>
    4808:	e1a00006 	mov	r0, r6
    480c:	e1a0100a 	mov	r1, r10
    4810:	eb000b24 	bl	74a8 <_Bfree>
    4814:	e1a00006 	mov	r0, r6
    4818:	e1a0100b 	mov	r1, r11
    481c:	eb000b21 	bl	74a8 <_Bfree>
    4820:	e59dc0b0 	ldr	r12, [sp, #176]	; 0xb0
    4824:	e35c0000 	cmp	r12, #0
    4828:	e59dc024 	ldr	r12, [sp, #36]	; 0x24
    482c:	e3a02000 	mov	r2, #0
    4830:	e5cc2000 	strb	r2, [r12]
    4834:	e59dc0a8 	ldr	r12, [sp, #168]	; 0xa8
    4838:	e2893001 	add	r3, r9, #1
    483c:	e58c3000 	str	r3, [r12]
    4840:	159dc024 	ldrne	r12, [sp, #36]	; 0x24
    4844:	159d10b0 	ldrne	r1, [sp, #176]	; 0xb0
    4848:	1581c000 	strne	r12, [r1]
    484c:	eafffe0d 	b	4088 <_dtoa_r+0xc8>
    4850:	e59dc02c 	ldr	r12, [sp, #44]	; 0x2c
    4854:	e069c00c 	rsb	r12, r9, r12
    4858:	e58dc02c 	str	r12, [sp, #44]	; 0x2c
    485c:	e2694000 	rsb	r4, r9, #0
    4860:	e3a0c000 	mov	r12, #0
    4864:	e58d403c 	str	r4, [sp, #60]	; 0x3c
    4868:	e58dc048 	str	r12, [sp, #72]	; 0x48
    486c:	eafffe78 	b	4254 <_dtoa_r+0x294>
    4870:	e1a00009 	mov	r0, r9
    4874:	eb001898 	bl	aadc <__aeabi_i2d>
    4878:	e1a02004 	mov	r2, r4
    487c:	e1a03005 	mov	r3, r5
    4880:	eb001a26 	bl	b120 <__aeabi_dcmpeq>
    4884:	e3500000 	cmp	r0, #0
    4888:	02499001 	subeq	r9, r9, #1
    488c:	eafffe50 	b	41d4 <_dtoa_r+0x214>
    4890:	e51f0318 	ldr	r0, [pc, #-792]	; 4580 <_dtoa_r+0x5c0>
    4894:	e59d1010 	ldr	r1, [sp, #16]
    4898:	e0670000 	rsb	r0, r7, r0
    489c:	e1a00011 	lsl	r0, r1, r0
    48a0:	eafffe26 	b	4140 <_dtoa_r+0x180>
    48a4:	e59dc0a0 	ldr	r12, [sp, #160]	; 0xa0
    48a8:	e35c0001 	cmp	r12, #1
    48ac:	da0002dc 	ble	5424 <_dtoa_r+0x1464>
    48b0:	e59dc038 	ldr	r12, [sp, #56]	; 0x38
    48b4:	e59d403c 	ldr	r4, [sp, #60]	; 0x3c
    48b8:	e24c5001 	sub	r5, r12, #1
    48bc:	e1540005 	cmp	r4, r5
    48c0:	b59dc03c 	ldrlt	r12, [sp, #60]	; 0x3c
    48c4:	b59d4048 	ldrlt	r4, [sp, #72]	; 0x48
    48c8:	b06c3005 	rsblt	r3, r12, r5
    48cc:	e59dc038 	ldr	r12, [sp, #56]	; 0x38
    48d0:	b0844003 	addlt	r4, r4, r3
    48d4:	a0655004 	rsbge	r5, r5, r4
    48d8:	b58d4048 	strlt	r4, [sp, #72]	; 0x48
    48dc:	b58d503c 	strlt	r5, [sp, #60]	; 0x3c
    48e0:	b3a05000 	movlt	r5, #0
    48e4:	e35c0000 	cmp	r12, #0
    48e8:	b59d102c 	ldrlt	r1, [sp, #44]	; 0x2c
    48ec:	a59d402c 	ldrge	r4, [sp, #44]	; 0x2c
    48f0:	a59d3038 	ldrge	r3, [sp, #56]	; 0x38
    48f4:	b06c4001 	rsblt	r4, r12, r1
    48f8:	b3a03000 	movlt	r3, #0
    48fc:	e59dc02c 	ldr	r12, [sp, #44]	; 0x2c
    4900:	e08cc003 	add	r12, r12, r3
    4904:	e58dc02c 	str	r12, [sp, #44]	; 0x2c
    4908:	e59dc028 	ldr	r12, [sp, #40]	; 0x28
    490c:	e1a00006 	mov	r0, r6
    4910:	e08cc003 	add	r12, r12, r3
    4914:	e3a01001 	mov	r1, #1
    4918:	e58dc028 	str	r12, [sp, #40]	; 0x28
    491c:	eb000b94 	bl	7774 <__i2b>
    4920:	e1a0a000 	mov	r10, r0
    4924:	eaffff34 	b	45fc <_dtoa_r+0x63c>
    4928:	e3a0c000 	mov	r12, #0
    492c:	e58dc040 	str	r12, [sp, #64]	; 0x40
    4930:	e59d10a4 	ldr	r1, [sp, #164]	; 0xa4
    4934:	e3510000 	cmp	r1, #0
    4938:	da000262 	ble	52c8 <_dtoa_r+0x1308>
    493c:	e58d1044 	str	r1, [sp, #68]	; 0x44
    4940:	e58d1038 	str	r1, [sp, #56]	; 0x38
    4944:	e1a08001 	mov	r8, r1
    4948:	e351000e 	cmp	r1, #14
    494c:	83a04000 	movhi	r4, #0
    4950:	92044001 	andls	r4, r4, #1
    4954:	e3a01000 	mov	r1, #0
    4958:	e3580017 	cmp	r8, #23
    495c:	e5861044 	str	r1, [r6, #68]	; 0x44
    4960:	9a000008 	bls	4988 <_dtoa_r+0x9c8>
    4964:	e3a02001 	mov	r2, #1
    4968:	e3a03004 	mov	r3, #4
    496c:	e1a03083 	lsl	r3, r3, #1
    4970:	e2830014 	add	r0, r3, #20
    4974:	e1500008 	cmp	r0, r8
    4978:	e1a01002 	mov	r1, r2
    497c:	e2822001 	add	r2, r2, #1
    4980:	9afffff9 	bls	496c <_dtoa_r+0x9ac>
    4984:	e5861044 	str	r1, [r6, #68]	; 0x44
    4988:	e1a00006 	mov	r0, r6
    498c:	eb000aa2 	bl	741c <_Balloc>
    4990:	e3540000 	cmp	r4, #0
    4994:	e58d0024 	str	r0, [sp, #36]	; 0x24
    4998:	e5860040 	str	r0, [r6, #64]	; 0x40
    499c:	0afffe61 	beq	4328 <_dtoa_r+0x368>
    49a0:	e3590000 	cmp	r9, #0
    49a4:	da000134 	ble	4e7c <_dtoa_r+0xebc>
    49a8:	e51f2424 	ldr	r2, [pc, #-1060]	; 458c <_dtoa_r+0x5cc>
    49ac:	e209300f 	and	r3, r9, #15
    49b0:	e1a07249 	asr	r7, r9, #4
    49b4:	e0823183 	add	r3, r2, r3, lsl #3
    49b8:	e3170010 	tst	r7, #16
    49bc:	e8930030 	ldm	r3, {r4, r5}
    49c0:	0a000123 	beq	4e54 <_dtoa_r+0xe94>
    49c4:	e51f3444 	ldr	r3, [pc, #-1092]	; 4588 <_dtoa_r+0x5c8>
    49c8:	e28d1010 	add	r1, sp, #16
    49cc:	e8910003 	ldm	r1, {r0, r1}
    49d0:	e2833020 	add	r3, r3, #32
    49d4:	e893000c 	ldm	r3, {r2, r3}
    49d8:	eb00191a 	bl	ae48 <__aeabi_ddiv>
    49dc:	e58d0030 	str	r0, [sp, #48]	; 0x30
    49e0:	e58d1034 	str	r1, [sp, #52]	; 0x34
    49e4:	e207700f 	and	r7, r7, #15
    49e8:	e3a08003 	mov	r8, #3
    49ec:	e3570000 	cmp	r7, #0
    49f0:	0a00000c 	beq	4a28 <_dtoa_r+0xa68>
    49f4:	e51fa474 	ldr	r10, [pc, #-1140]	; 4588 <_dtoa_r+0x5c8>
    49f8:	e1a00004 	mov	r0, r4
    49fc:	e1a01005 	mov	r1, r5
    4a00:	e3170001 	tst	r7, #1
    4a04:	0a000002 	beq	4a14 <_dtoa_r+0xa54>
    4a08:	e89a000c 	ldm	r10, {r2, r3}
    4a0c:	eb001869 	bl	abb8 <__aeabi_dmul>
    4a10:	e2888001 	add	r8, r8, #1
    4a14:	e1b070c7 	asrs	r7, r7, #1
    4a18:	e28aa008 	add	r10, r10, #8
    4a1c:	1afffff7 	bne	4a00 <_dtoa_r+0xa40>
    4a20:	e1a04000 	mov	r4, r0
    4a24:	e1a05001 	mov	r5, r1
    4a28:	e28d1030 	add	r1, sp, #48	; 0x30
    4a2c:	e8910003 	ldm	r1, {r0, r1}
    4a30:	e1a02004 	mov	r2, r4
    4a34:	e1a03005 	mov	r3, r5
    4a38:	eb001902 	bl	ae48 <__aeabi_ddiv>
    4a3c:	e58d0030 	str	r0, [sp, #48]	; 0x30
    4a40:	e58d1034 	str	r1, [sp, #52]	; 0x34
    4a44:	e59d404c 	ldr	r4, [sp, #76]	; 0x4c
    4a48:	e3540000 	cmp	r4, #0
    4a4c:	0a000006 	beq	4a6c <_dtoa_r+0xaac>
    4a50:	e28d1030 	add	r1, sp, #48	; 0x30
    4a54:	e8910003 	ldm	r1, {r0, r1}
    4a58:	e3a02000 	mov	r2, #0
    4a5c:	e51f34e0 	ldr	r3, [pc, #-1248]	; 4584 <_dtoa_r+0x5c4>
    4a60:	eb0019b4 	bl	b138 <__aeabi_dcmplt>
    4a64:	e3500000 	cmp	r0, #0
    4a68:	1a000235 	bne	5344 <_dtoa_r+0x1384>
    4a6c:	e1a00008 	mov	r0, r8
    4a70:	eb001819 	bl	aadc <__aeabi_i2d>
    4a74:	e28d3030 	add	r3, sp, #48	; 0x30
    4a78:	e893000c 	ldm	r3, {r2, r3}
    4a7c:	eb00184d 	bl	abb8 <__aeabi_dmul>
    4a80:	e3a02000 	mov	r2, #0
    4a84:	e51f34f0 	ldr	r3, [pc, #-1264]	; 459c <_dtoa_r+0x5dc>
    4a88:	eb001746 	bl	a7a8 <__adddf3>
    4a8c:	e59dc038 	ldr	r12, [sp, #56]	; 0x38
    4a90:	e35c0000 	cmp	r12, #0
    4a94:	e1a04000 	mov	r4, r0
    4a98:	e241550d 	sub	r5, r1, #54525952	; 0x3400000
    4a9c:	0a000094 	beq	4cf4 <_dtoa_r+0xd34>
    4aa0:	e58d9064 	str	r9, [sp, #100]	; 0x64
    4aa4:	e59da038 	ldr	r10, [sp, #56]	; 0x38
    4aa8:	e59dc040 	ldr	r12, [sp, #64]	; 0x40
    4aac:	e35c0000 	cmp	r12, #0
    4ab0:	0a00010f 	beq	4ef4 <_dtoa_r+0xf34>
    4ab4:	e51f3530 	ldr	r3, [pc, #-1328]	; 458c <_dtoa_r+0x5cc>
    4ab8:	e083318a 	add	r3, r3, r10, lsl #3
    4abc:	e913000c 	ldmdb	r3, {r2, r3}
    4ac0:	e3a00000 	mov	r0, #0
    4ac4:	e51f152c 	ldr	r1, [pc, #-1324]	; 45a0 <_dtoa_r+0x5e0>
    4ac8:	eb0018de 	bl	ae48 <__aeabi_ddiv>
    4acc:	e1a02004 	mov	r2, r4
    4ad0:	e1a03005 	mov	r3, r5
    4ad4:	eb001732 	bl	a7a4 <__aeabi_dsub>
    4ad8:	e58d0050 	str	r0, [sp, #80]	; 0x50
    4adc:	e58d1054 	str	r1, [sp, #84]	; 0x54
    4ae0:	e28d1030 	add	r1, sp, #48	; 0x30
    4ae4:	e8910003 	ldm	r1, {r0, r1}
    4ae8:	eb0019aa 	bl	b198 <__aeabi_d2iz>
    4aec:	e1a07000 	mov	r7, r0
    4af0:	eb0017f9 	bl	aadc <__aeabi_i2d>
    4af4:	e1a02000 	mov	r2, r0
    4af8:	e1a03001 	mov	r3, r1
    4afc:	e28d1030 	add	r1, sp, #48	; 0x30
    4b00:	e8910003 	ldm	r1, {r0, r1}
    4b04:	eb001726 	bl	a7a4 <__aeabi_dsub>
    4b08:	e2877030 	add	r7, r7, #48	; 0x30
    4b0c:	e59dc024 	ldr	r12, [sp, #36]	; 0x24
    4b10:	e20780ff 	and	r8, r7, #255	; 0xff
    4b14:	e4cc8001 	strb	r8, [r12], #1
    4b18:	e1a04000 	mov	r4, r0
    4b1c:	e1a05001 	mov	r5, r1
    4b20:	e1a02004 	mov	r2, r4
    4b24:	e28d1050 	add	r1, sp, #80	; 0x50
    4b28:	e8910003 	ldm	r1, {r0, r1}
    4b2c:	e1a03005 	mov	r3, r5
    4b30:	e58dc030 	str	r12, [sp, #48]	; 0x30
    4b34:	eb001991 	bl	b180 <__aeabi_dcmpgt>
    4b38:	e3500000 	cmp	r0, #0
    4b3c:	e59dc030 	ldr	r12, [sp, #48]	; 0x30
    4b40:	1a0002c7 	bne	5664 <_dtoa_r+0x16a4>
    4b44:	e1a02004 	mov	r2, r4
    4b48:	e1a03005 	mov	r3, r5
    4b4c:	e3a00000 	mov	r0, #0
    4b50:	e51f15d4 	ldr	r1, [pc, #-1492]	; 4584 <_dtoa_r+0x5c4>
    4b54:	e58dc008 	str	r12, [sp, #8]
    4b58:	eb001711 	bl	a7a4 <__aeabi_dsub>
    4b5c:	e1a02000 	mov	r2, r0
    4b60:	e1a03001 	mov	r3, r1
    4b64:	e28d1050 	add	r1, sp, #80	; 0x50
    4b68:	e8910003 	ldm	r1, {r0, r1}
    4b6c:	eb001983 	bl	b180 <__aeabi_dcmpgt>
    4b70:	e3500000 	cmp	r0, #0
    4b74:	e59dc008 	ldr	r12, [sp, #8]
    4b78:	1a000250 	bne	54c0 <_dtoa_r+0x1500>
    4b7c:	e35a0001 	cmp	r10, #1
    4b80:	dafffde8 	ble	4328 <_dtoa_r+0x368>
    4b84:	e59dc024 	ldr	r12, [sp, #36]	; 0x24
    4b88:	e59d7030 	ldr	r7, [sp, #48]	; 0x30
    4b8c:	e08ca00a 	add	r10, r12, r10
    4b90:	e58d906c 	str	r9, [sp, #108]	; 0x6c
    4b94:	e58d6068 	str	r6, [sp, #104]	; 0x68
    4b98:	e1a0900a 	mov	r9, r10
    4b9c:	e58db058 	str	r11, [sp, #88]	; 0x58
    4ba0:	e1a0a007 	mov	r10, r7
    4ba4:	e28d7050 	add	r7, sp, #80	; 0x50
    4ba8:	e89700c0 	ldm	r7, {r6, r7}
    4bac:	ea000007 	b	4bd0 <_dtoa_r+0xc10>
    4bb0:	eb0016fb 	bl	a7a4 <__aeabi_dsub>
    4bb4:	e1a02006 	mov	r2, r6
    4bb8:	e1a03007 	mov	r3, r7
    4bbc:	eb00195d 	bl	b138 <__aeabi_dcmplt>
    4bc0:	e3500000 	cmp	r0, #0
    4bc4:	1a00023a 	bne	54b4 <_dtoa_r+0x14f4>
    4bc8:	e15a0009 	cmp	r10, r9
    4bcc:	0a000241 	beq	54d8 <_dtoa_r+0x1518>
    4bd0:	e3a02000 	mov	r2, #0
    4bd4:	e51f3644 	ldr	r3, [pc, #-1604]	; 4598 <_dtoa_r+0x5d8>
    4bd8:	e1a00006 	mov	r0, r6
    4bdc:	e1a01007 	mov	r1, r7
    4be0:	eb0017f4 	bl	abb8 <__aeabi_dmul>
    4be4:	e3a02000 	mov	r2, #0
    4be8:	e51f3658 	ldr	r3, [pc, #-1624]	; 4598 <_dtoa_r+0x5d8>
    4bec:	e1a06000 	mov	r6, r0
    4bf0:	e1a07001 	mov	r7, r1
    4bf4:	e1a00004 	mov	r0, r4
    4bf8:	e1a01005 	mov	r1, r5
    4bfc:	eb0017ed 	bl	abb8 <__aeabi_dmul>
    4c00:	e1a05001 	mov	r5, r1
    4c04:	e1a04000 	mov	r4, r0
    4c08:	eb001962 	bl	b198 <__aeabi_d2iz>
    4c0c:	e1a08000 	mov	r8, r0
    4c10:	eb0017b1 	bl	aadc <__aeabi_i2d>
    4c14:	e1a02000 	mov	r2, r0
    4c18:	e1a03001 	mov	r3, r1
    4c1c:	e1a00004 	mov	r0, r4
    4c20:	e1a01005 	mov	r1, r5
    4c24:	eb0016de 	bl	a7a4 <__aeabi_dsub>
    4c28:	e2888030 	add	r8, r8, #48	; 0x30
    4c2c:	e20880ff 	and	r8, r8, #255	; 0xff
    4c30:	e4ca8001 	strb	r8, [r10], #1
    4c34:	e1a02006 	mov	r2, r6
    4c38:	e1a03007 	mov	r3, r7
    4c3c:	e1a05001 	mov	r5, r1
    4c40:	e1a04000 	mov	r4, r0
    4c44:	eb00193b 	bl	b138 <__aeabi_dcmplt>
    4c48:	e3500000 	cmp	r0, #0
    4c4c:	e1a02004 	mov	r2, r4
    4c50:	e1a03005 	mov	r3, r5
    4c54:	e3a00000 	mov	r0, #0
    4c58:	e51f16dc 	ldr	r1, [pc, #-1756]	; 4584 <_dtoa_r+0x5c4>
    4c5c:	e1a0b00a 	mov	r11, r10
    4c60:	0affffd2 	beq	4bb0 <_dtoa_r+0xbf0>
    4c64:	e59d4024 	ldr	r4, [sp, #36]	; 0x24
    4c68:	e1a0700a 	mov	r7, r10
    4c6c:	e59db058 	ldr	r11, [sp, #88]	; 0x58
    4c70:	e59d6068 	ldr	r6, [sp, #104]	; 0x68
    4c74:	e59d9064 	ldr	r9, [sp, #100]	; 0x64
    4c78:	e58da024 	str	r10, [sp, #36]	; 0x24
    4c7c:	eafffee4 	b	4814 <_dtoa_r+0x854>
    4c80:	e3a0c001 	mov	r12, #1
    4c84:	e58dc040 	str	r12, [sp, #64]	; 0x40
    4c88:	e59dc0a4 	ldr	r12, [sp, #164]	; 0xa4
    4c8c:	e08cc009 	add	r12, r12, r9
    4c90:	e28c8001 	add	r8, r12, #1
    4c94:	e3580000 	cmp	r8, #0
    4c98:	e58dc044 	str	r12, [sp, #68]	; 0x44
    4c9c:	da000191 	ble	52e8 <_dtoa_r+0x1328>
    4ca0:	e358000e 	cmp	r8, #14
    4ca4:	83a04000 	movhi	r4, #0
    4ca8:	92044001 	andls	r4, r4, #1
    4cac:	e58d8038 	str	r8, [sp, #56]	; 0x38
    4cb0:	eaffff27 	b	4954 <_dtoa_r+0x994>
    4cb4:	e3a0c001 	mov	r12, #1
    4cb8:	e58dc040 	str	r12, [sp, #64]	; 0x40
    4cbc:	eaffff1b 	b	4930 <_dtoa_r+0x970>
    4cc0:	e3a0c000 	mov	r12, #0
    4cc4:	e58dc040 	str	r12, [sp, #64]	; 0x40
    4cc8:	eaffffee 	b	4c88 <_dtoa_r+0xcc8>
    4ccc:	e1a00008 	mov	r0, r8
    4cd0:	eb001781 	bl	aadc <__aeabi_i2d>
    4cd4:	e28d3030 	add	r3, sp, #48	; 0x30
    4cd8:	e893000c 	ldm	r3, {r2, r3}
    4cdc:	eb0017b5 	bl	abb8 <__aeabi_dmul>
    4ce0:	e3a02000 	mov	r2, #0
    4ce4:	e51f3750 	ldr	r3, [pc, #-1872]	; 459c <_dtoa_r+0x5dc>
    4ce8:	eb0016ae 	bl	a7a8 <__adddf3>
    4cec:	e1a04000 	mov	r4, r0
    4cf0:	e241550d 	sub	r5, r1, #54525952	; 0x3400000
    4cf4:	e3a02000 	mov	r2, #0
    4cf8:	e51f3770 	ldr	r3, [pc, #-1904]	; 4590 <_dtoa_r+0x5d0>
    4cfc:	e28d1030 	add	r1, sp, #48	; 0x30
    4d00:	e8910003 	ldm	r1, {r0, r1}
    4d04:	eb0016a6 	bl	a7a4 <__aeabi_dsub>
    4d08:	e1a02004 	mov	r2, r4
    4d0c:	e1a03005 	mov	r3, r5
    4d10:	e1a07000 	mov	r7, r0
    4d14:	e1a08001 	mov	r8, r1
    4d18:	eb001918 	bl	b180 <__aeabi_dcmpgt>
    4d1c:	e250a000 	subs	r10, r0, #0
    4d20:	1a000070 	bne	4ee8 <_dtoa_r+0xf28>
    4d24:	e1a02004 	mov	r2, r4
    4d28:	e2853102 	add	r3, r5, #-2147483648	; 0x80000000
    4d2c:	e1a00007 	mov	r0, r7
    4d30:	e1a01008 	mov	r1, r8
    4d34:	eb0018ff 	bl	b138 <__aeabi_dcmplt>
    4d38:	e3500000 	cmp	r0, #0
    4d3c:	0afffd79 	beq	4328 <_dtoa_r+0x368>
    4d40:	e1a0700a 	mov	r7, r10
    4d44:	e59dc0a4 	ldr	r12, [sp, #164]	; 0xa4
    4d48:	e59d4024 	ldr	r4, [sp, #36]	; 0x24
    4d4c:	e1e0900c 	mvn	r9, r12
    4d50:	e3a05000 	mov	r5, #0
    4d54:	eafffea3 	b	47e8 <_dtoa_r+0x828>
    4d58:	e59dc040 	ldr	r12, [sp, #64]	; 0x40
    4d5c:	e35c0000 	cmp	r12, #0
    4d60:	1a0000ee 	bne	5120 <_dtoa_r+0x1160>
    4d64:	e3a04000 	mov	r4, #0
    4d68:	e59d5038 	ldr	r5, [sp, #56]	; 0x38
    4d6c:	e59d8024 	ldr	r8, [sp, #36]	; 0x24
    4d70:	ea000005 	b	4d8c <_dtoa_r+0xdcc>
    4d74:	e1a0100b 	mov	r1, r11
    4d78:	e1a00006 	mov	r0, r6
    4d7c:	e3a0200a 	mov	r2, #10
    4d80:	e3a03000 	mov	r3, #0
    4d84:	eb0009ce 	bl	74c4 <__multadd>
    4d88:	e1a0b000 	mov	r11, r0
    4d8c:	e1a01007 	mov	r1, r7
    4d90:	e1a0000b 	mov	r0, r11
    4d94:	ebfffc11 	bl	3de0 <quorem>
    4d98:	e2800030 	add	r0, r0, #48	; 0x30
    4d9c:	e7c80004 	strb	r0, [r8, r4]
    4da0:	e2844001 	add	r4, r4, #1
    4da4:	e1540005 	cmp	r4, r5
    4da8:	bafffff1 	blt	4d74 <_dtoa_r+0xdb4>
    4dac:	e59dc024 	ldr	r12, [sp, #36]	; 0x24
    4db0:	e59d4038 	ldr	r4, [sp, #56]	; 0x38
    4db4:	e1a03000 	mov	r3, r0
    4db8:	e3540001 	cmp	r4, #1
    4dbc:	a08cc004 	addge	r12, r12, r4
    4dc0:	b28cc001 	addlt	r12, r12, #1
    4dc4:	e3a05000 	mov	r5, #0
    4dc8:	e1a0100b 	mov	r1, r11
    4dcc:	e3a02001 	mov	r2, #1
    4dd0:	e1a00006 	mov	r0, r6
    4dd4:	e58d300c 	str	r3, [sp, #12]
    4dd8:	e58dc008 	str	r12, [sp, #8]
    4ddc:	eb000b23 	bl	7a70 <__lshift>
    4de0:	e1a01007 	mov	r1, r7
    4de4:	e1a0b000 	mov	r11, r0
    4de8:	eb000b61 	bl	7b74 <__mcmp>
    4dec:	e3500000 	cmp	r0, #0
    4df0:	e59d300c 	ldr	r3, [sp, #12]
    4df4:	e59dc008 	ldr	r12, [sp, #8]
    4df8:	da0001ba 	ble	54e8 <_dtoa_r+0x1528>
    4dfc:	e59d4024 	ldr	r4, [sp, #36]	; 0x24
    4e00:	e2844001 	add	r4, r4, #1
    4e04:	e55c3001 	ldrb	r3, [r12, #-1]
    4e08:	e58d4030 	str	r4, [sp, #48]	; 0x30
    4e0c:	e1a0100c 	mov	r1, r12
    4e10:	e59d0030 	ldr	r0, [sp, #48]	; 0x30
    4e14:	ea000001 	b	4e20 <_dtoa_r+0xe60>
    4e18:	e5513002 	ldrb	r3, [r1, #-2]
    4e1c:	e1a01002 	mov	r1, r2
    4e20:	e3530039 	cmp	r3, #57	; 0x39
    4e24:	e2412001 	sub	r2, r1, #1
    4e28:	1a0001cd 	bne	5564 <_dtoa_r+0x15a4>
    4e2c:	e1510000 	cmp	r1, r0
    4e30:	1afffff8 	bne	4e18 <_dtoa_r+0xe58>
    4e34:	e3a03031 	mov	r3, #49	; 0x31
    4e38:	e59d4024 	ldr	r4, [sp, #36]	; 0x24
    4e3c:	e2899001 	add	r9, r9, #1
    4e40:	e5c23000 	strb	r3, [r2]
    4e44:	e58d1024 	str	r1, [sp, #36]	; 0x24
    4e48:	eafffe66 	b	47e8 <_dtoa_r+0x828>
    4e4c:	e3a0301c 	mov	r3, #28
    4e50:	eafffe2c 	b	4708 <_dtoa_r+0x748>
    4e54:	e28d3010 	add	r3, sp, #16
    4e58:	e893000c 	ldm	r3, {r2, r3}
    4e5c:	e3a08002 	mov	r8, #2
    4e60:	e58d2030 	str	r2, [sp, #48]	; 0x30
    4e64:	e58d3034 	str	r3, [sp, #52]	; 0x34
    4e68:	eafffedf 	b	49ec <_dtoa_r+0xa2c>
    4e6c:	e1a00006 	mov	r0, r6
    4e70:	e1a01005 	mov	r1, r5
    4e74:	eb00098b 	bl	74a8 <_Bfree>
    4e78:	eafffe62 	b	4808 <_dtoa_r+0x848>
    4e7c:	e2694000 	rsb	r4, r9, #0
    4e80:	e3540000 	cmp	r4, #0
    4e84:	0a000128 	beq	532c <_dtoa_r+0x136c>
    4e88:	e51f3904 	ldr	r3, [pc, #-2308]	; 458c <_dtoa_r+0x5cc>
    4e8c:	e204200f 	and	r2, r4, #15
    4e90:	e0833182 	add	r3, r3, r2, lsl #3
    4e94:	e28d1010 	add	r1, sp, #16
    4e98:	e8910003 	ldm	r1, {r0, r1}
    4e9c:	e893000c 	ldm	r3, {r2, r3}
    4ea0:	eb001744 	bl	abb8 <__aeabi_dmul>
    4ea4:	e1b04244 	asrs	r4, r4, #4
    4ea8:	e58d0030 	str	r0, [sp, #48]	; 0x30
    4eac:	e58d1034 	str	r1, [sp, #52]	; 0x34
    4eb0:	0a0001d2 	beq	5600 <_dtoa_r+0x1640>
    4eb4:	e51f5934 	ldr	r5, [pc, #-2356]	; 4588 <_dtoa_r+0x5c8>
    4eb8:	e3a08002 	mov	r8, #2
    4ebc:	e3140001 	tst	r4, #1
    4ec0:	0a000002 	beq	4ed0 <_dtoa_r+0xf10>
    4ec4:	e895000c 	ldm	r5, {r2, r3}
    4ec8:	eb00173a 	bl	abb8 <__aeabi_dmul>
    4ecc:	e2888001 	add	r8, r8, #1
    4ed0:	e1b040c4 	asrs	r4, r4, #1
    4ed4:	e2855008 	add	r5, r5, #8
    4ed8:	1afffff7 	bne	4ebc <_dtoa_r+0xefc>
    4edc:	e58d0030 	str	r0, [sp, #48]	; 0x30
    4ee0:	e58d1034 	str	r1, [sp, #52]	; 0x34
    4ee4:	eafffed6 	b	4a44 <_dtoa_r+0xa84>
    4ee8:	e3a07000 	mov	r7, #0
    4eec:	e1a0a007 	mov	r10, r7
    4ef0:	eafffe35 	b	47cc <_dtoa_r+0x80c>
    4ef4:	e51f1970 	ldr	r1, [pc, #-2416]	; 458c <_dtoa_r+0x5cc>
    4ef8:	e24ac001 	sub	r12, r10, #1
    4efc:	e081118c 	add	r1, r1, r12, lsl #3
    4f00:	e1a02004 	mov	r2, r4
    4f04:	e1a03005 	mov	r3, r5
    4f08:	e8910003 	ldm	r1, {r0, r1}
    4f0c:	e58dc050 	str	r12, [sp, #80]	; 0x50
    4f10:	eb001728 	bl	abb8 <__aeabi_dmul>
    4f14:	e58d0058 	str	r0, [sp, #88]	; 0x58
    4f18:	e58d105c 	str	r1, [sp, #92]	; 0x5c
    4f1c:	e28d1030 	add	r1, sp, #48	; 0x30
    4f20:	e8910003 	ldm	r1, {r0, r1}
    4f24:	eb00189b 	bl	b198 <__aeabi_d2iz>
    4f28:	e1a07000 	mov	r7, r0
    4f2c:	eb0016ea 	bl	aadc <__aeabi_i2d>
    4f30:	e1a02000 	mov	r2, r0
    4f34:	e1a03001 	mov	r3, r1
    4f38:	e28d1030 	add	r1, sp, #48	; 0x30
    4f3c:	e8910003 	ldm	r1, {r0, r1}
    4f40:	eb001617 	bl	a7a4 <__aeabi_dsub>
    4f44:	e59dc024 	ldr	r12, [sp, #36]	; 0x24
    4f48:	e2877030 	add	r7, r7, #48	; 0x30
    4f4c:	e4cc7001 	strb	r7, [r12], #1
    4f50:	e35a0001 	cmp	r10, #1
    4f54:	e1a04000 	mov	r4, r0
    4f58:	e1a05001 	mov	r5, r1
    4f5c:	e58dc030 	str	r12, [sp, #48]	; 0x30
    4f60:	0a000019 	beq	4fcc <_dtoa_r+0x100c>
    4f64:	e59dc024 	ldr	r12, [sp, #36]	; 0x24
    4f68:	e24c3001 	sub	r3, r12, #1
    4f6c:	e1a0700c 	mov	r7, r12
    4f70:	e083a00a 	add	r10, r3, r10
    4f74:	e3a02000 	mov	r2, #0
    4f78:	e51f39e8 	ldr	r3, [pc, #-2536]	; 4598 <_dtoa_r+0x5d8>
    4f7c:	eb00170d 	bl	abb8 <__aeabi_dmul>
    4f80:	e1a05001 	mov	r5, r1
    4f84:	e1a04000 	mov	r4, r0
    4f88:	eb001882 	bl	b198 <__aeabi_d2iz>
    4f8c:	e1a08000 	mov	r8, r0
    4f90:	eb0016d1 	bl	aadc <__aeabi_i2d>
    4f94:	e2888030 	add	r8, r8, #48	; 0x30
    4f98:	e1a02000 	mov	r2, r0
    4f9c:	e1a03001 	mov	r3, r1
    4fa0:	e1a00004 	mov	r0, r4
    4fa4:	e1a01005 	mov	r1, r5
    4fa8:	eb0015fd 	bl	a7a4 <__aeabi_dsub>
    4fac:	e5e78001 	strb	r8, [r7, #1]!
    4fb0:	e157000a 	cmp	r7, r10
    4fb4:	1affffee 	bne	4f74 <_dtoa_r+0xfb4>
    4fb8:	e1a05001 	mov	r5, r1
    4fbc:	e59d2050 	ldr	r2, [sp, #80]	; 0x50
    4fc0:	e59d1030 	ldr	r1, [sp, #48]	; 0x30
    4fc4:	e1a04000 	mov	r4, r0
    4fc8:	e081c002 	add	r12, r1, r2
    4fcc:	e3a02000 	mov	r2, #0
    4fd0:	e51f3a38 	ldr	r3, [pc, #-2616]	; 45a0 <_dtoa_r+0x5e0>
    4fd4:	e28d1058 	add	r1, sp, #88	; 0x58
    4fd8:	e8910003 	ldm	r1, {r0, r1}
    4fdc:	e58dc008 	str	r12, [sp, #8]
    4fe0:	eb0015f0 	bl	a7a8 <__adddf3>
    4fe4:	e1a02004 	mov	r2, r4
    4fe8:	e1a03005 	mov	r3, r5
    4fec:	eb001851 	bl	b138 <__aeabi_dcmplt>
    4ff0:	e3500000 	cmp	r0, #0
    4ff4:	e59dc008 	ldr	r12, [sp, #8]
    4ff8:	0a0000ee 	beq	53b8 <_dtoa_r+0x13f8>
    4ffc:	e55c8001 	ldrb	r8, [r12, #-1]
    5000:	e59d4024 	ldr	r4, [sp, #36]	; 0x24
    5004:	eafffd4d 	b	4540 <_dtoa_r+0x580>
    5008:	e5973010 	ldr	r3, [r7, #16]
    500c:	e0873103 	add	r3, r7, r3, lsl #2
    5010:	e5930010 	ldr	r0, [r3, #16]
    5014:	eb00099d 	bl	7690 <__hi0bits>
    5018:	e2600020 	rsb	r0, r0, #32
    501c:	eafffdb1 	b	46e8 <_dtoa_r+0x728>
    5020:	e1a0000b 	mov	r0, r11
    5024:	e1a01007 	mov	r1, r7
    5028:	eb000ad1 	bl	7b74 <__mcmp>
    502c:	e3500000 	cmp	r0, #0
    5030:	aafffdce 	bge	4770 <_dtoa_r+0x7b0>
    5034:	e1a0100b 	mov	r1, r11
    5038:	e1a00006 	mov	r0, r6
    503c:	e3a0200a 	mov	r2, #10
    5040:	e3a03000 	mov	r3, #0
    5044:	eb00091e 	bl	74c4 <__multadd>
    5048:	e59dc040 	ldr	r12, [sp, #64]	; 0x40
    504c:	e35c0000 	cmp	r12, #0
    5050:	e1a0b000 	mov	r11, r0
    5054:	e2499001 	sub	r9, r9, #1
    5058:	1a00016e 	bne	5618 <_dtoa_r+0x1658>
    505c:	e59d4044 	ldr	r4, [sp, #68]	; 0x44
    5060:	e59dc0a0 	ldr	r12, [sp, #160]	; 0xa0
    5064:	e3540000 	cmp	r4, #0
    5068:	c3a03000 	movgt	r3, #0
    506c:	d3a03001 	movle	r3, #1
    5070:	e35c0002 	cmp	r12, #2
    5074:	d3a03000 	movle	r3, #0
    5078:	e3530000 	cmp	r3, #0
    507c:	058d4038 	streq	r4, [sp, #56]	; 0x38
    5080:	0affff37 	beq	4d64 <_dtoa_r+0xda4>
    5084:	e59dc044 	ldr	r12, [sp, #68]	; 0x44
    5088:	e58dc038 	str	r12, [sp, #56]	; 0x38
    508c:	eafffdc0 	b	4794 <_dtoa_r+0x7d4>
    5090:	e59d4038 	ldr	r4, [sp, #56]	; 0x38
    5094:	e3540000 	cmp	r4, #0
    5098:	1a00011e 	bne	5518 <_dtoa_r+0x1558>
    509c:	e3a02000 	mov	r2, #0
    50a0:	e51f3b18 	ldr	r3, [pc, #-2840]	; 4590 <_dtoa_r+0x5d0>
    50a4:	e28d1018 	add	r1, sp, #24
    50a8:	e8910003 	ldm	r1, {r0, r1}
    50ac:	eb0016c1 	bl	abb8 <__aeabi_dmul>
    50b0:	e28d3010 	add	r3, sp, #16
    50b4:	e893000c 	ldm	r3, {r2, r3}
    50b8:	eb00182a 	bl	b168 <__aeabi_dcmpge>
    50bc:	e59d7038 	ldr	r7, [sp, #56]	; 0x38
    50c0:	e3500000 	cmp	r0, #0
    50c4:	e1a0a007 	mov	r10, r7
    50c8:	1affff1d 	bne	4d44 <_dtoa_r+0xd84>
    50cc:	eafffdbe 	b	47cc <_dtoa_r+0x80c>
    50d0:	e59d1010 	ldr	r1, [sp, #16]
    50d4:	e3510000 	cmp	r1, #0
    50d8:	1afffd7d 	bne	46d4 <_dtoa_r+0x714>
    50dc:	e59d3014 	ldr	r3, [sp, #20]
    50e0:	e3c324ff 	bic	r2, r3, #-16777216	; 0xff000000
    50e4:	e3c2260f 	bic	r2, r2, #15728640	; 0xf00000
    50e8:	e3520000 	cmp	r2, #0
    50ec:	1a000121 	bne	5578 <_dtoa_r+0x15b8>
    50f0:	e51f5b64 	ldr	r5, [pc, #-2916]	; 4594 <_dtoa_r+0x5d4>
    50f4:	e0035005 	and	r5, r3, r5
    50f8:	e3550000 	cmp	r5, #0
    50fc:	0afffd75 	beq	46d8 <_dtoa_r+0x718>
    5100:	e59dc02c 	ldr	r12, [sp, #44]	; 0x2c
    5104:	e28cc001 	add	r12, r12, #1
    5108:	e58dc02c 	str	r12, [sp, #44]	; 0x2c
    510c:	e59dc028 	ldr	r12, [sp, #40]	; 0x28
    5110:	e28cc001 	add	r12, r12, #1
    5114:	e58dc028 	str	r12, [sp, #40]	; 0x28
    5118:	e3a05001 	mov	r5, #1
    511c:	eafffd6d 	b	46d8 <_dtoa_r+0x718>
    5120:	e3540000 	cmp	r4, #0
    5124:	da000004 	ble	513c <_dtoa_r+0x117c>
    5128:	e1a0100a 	mov	r1, r10
    512c:	e1a00006 	mov	r0, r6
    5130:	e1a02004 	mov	r2, r4
    5134:	eb000a4d 	bl	7a70 <__lshift>
    5138:	e1a0a000 	mov	r10, r0
    513c:	e3550000 	cmp	r5, #0
    5140:	01a0800a 	moveq	r8, r10
    5144:	1a0000f6 	bne	5524 <_dtoa_r+0x1564>
    5148:	e59d1038 	ldr	r1, [sp, #56]	; 0x38
    514c:	e59dc024 	ldr	r12, [sp, #36]	; 0x24
    5150:	e08cc001 	add	r12, r12, r1
    5154:	e59d4024 	ldr	r4, [sp, #36]	; 0x24
    5158:	e58dc02c 	str	r12, [sp, #44]	; 0x2c
    515c:	e59dc010 	ldr	r12, [sp, #16]
    5160:	e2844001 	add	r4, r4, #1
    5164:	e20cc001 	and	r12, r12, #1
    5168:	e58d4030 	str	r4, [sp, #48]	; 0x30
    516c:	e1a0500a 	mov	r5, r10
    5170:	e58dc020 	str	r12, [sp, #32]
    5174:	e58d9038 	str	r9, [sp, #56]	; 0x38
    5178:	ea00002e 	b	5238 <_dtoa_r+0x1278>
    517c:	e1a00006 	mov	r0, r6
    5180:	e1a01003 	mov	r1, r3
    5184:	e58d200c 	str	r2, [sp, #12]
    5188:	eb0008c6 	bl	74a8 <_Bfree>
    518c:	e59d200c 	ldr	r2, [sp, #12]
    5190:	e59dc0a0 	ldr	r12, [sp, #160]	; 0xa0
    5194:	e192c00c 	orrs	r12, r2, r12
    5198:	1a000002 	bne	51a8 <_dtoa_r+0x11e8>
    519c:	e59dc020 	ldr	r12, [sp, #32]
    51a0:	e35c0000 	cmp	r12, #0
    51a4:	0a000109 	beq	55d0 <_dtoa_r+0x1610>
    51a8:	e35a0000 	cmp	r10, #0
    51ac:	ba0000a6 	blt	544c <_dtoa_r+0x148c>
    51b0:	e59dc0a0 	ldr	r12, [sp, #160]	; 0xa0
    51b4:	e19ac00c 	orrs	r12, r10, r12
    51b8:	1a000002 	bne	51c8 <_dtoa_r+0x1208>
    51bc:	e59dc020 	ldr	r12, [sp, #32]
    51c0:	e35c0000 	cmp	r12, #0
    51c4:	0a0000a0 	beq	544c <_dtoa_r+0x148c>
    51c8:	e3520000 	cmp	r2, #0
    51cc:	ca0000eb 	bgt	5580 <_dtoa_r+0x15c0>
    51d0:	e59dc02c 	ldr	r12, [sp, #44]	; 0x2c
    51d4:	e154000c 	cmp	r4, r12
    51d8:	e5449001 	strb	r9, [r4, #-1]
    51dc:	e1a0c004 	mov	r12, r4
    51e0:	0a0000f1 	beq	55ac <_dtoa_r+0x15ec>
    51e4:	e1a0100b 	mov	r1, r11
    51e8:	e1a00006 	mov	r0, r6
    51ec:	e3a0200a 	mov	r2, #10
    51f0:	e3a03000 	mov	r3, #0
    51f4:	eb0008b2 	bl	74c4 <__multadd>
    51f8:	e1550008 	cmp	r5, r8
    51fc:	e1a0b000 	mov	r11, r0
